

Microchip MPLAB XC8 Assembler V2.41 build 20230208172133 
                                                                                               Sat Feb 17 05:12:26 2024

Microchip MPLAB XC8 C Compiler v2.41 (Free license) build 20230208172133 Og1 
     1                           	processor	18F4620
     2                           	fnconf	rparam,??,?,0
     3                           	pagewidth 120
     4                           	opt	flic
     5                           	psect	idataCOMRAM,global,class=CODE,delta=1,noexec
     6                           	psect	idataBANK0,global,class=CODE,delta=1,noexec
     7                           	psect	smallconst,global,reloc=2,class=SMALLCONST,delta=1,noexec
     8                           	psect	cinit,global,reloc=2,class=CODE,delta=1
     9                           	psect	bssCOMRAM,global,class=COMRAM,space=1,delta=1,lowdata,noexec
    10                           	psect	dataCOMRAM,global,class=COMRAM,space=1,delta=1,lowdata,noexec
    11                           	psect	dataBANK0,global,class=BANK0,space=1,delta=1,lowdata,noexec
    12                           	psect	cstackCOMRAM,global,class=COMRAM,space=1,delta=1,lowdata,noexec
    13                           	psect	text0,global,reloc=2,class=CODE,delta=1
    14                           	psect	text1,global,reloc=2,class=CODE,delta=1
    15                           	psect	text2,global,reloc=2,class=CODE,delta=1
    16                           	psect	text3,global,reloc=2,class=CODE,delta=1
    17                           	psect	text4,global,reloc=2,class=CODE,delta=1
    18                           	psect	text5,global,reloc=2,class=CODE,delta=1
    19                           	psect	text6,global,reloc=2,class=CODE,delta=1
    20                           	psect	text7,global,reloc=2,class=CODE,delta=1
    21                           	psect	text8,global,reloc=2,class=CODE,delta=1
    22                           	psect	text9,global,reloc=2,class=CODE,delta=1
    23                           	psect	text10,global,reloc=2,class=CODE,delta=1
    24                           	psect	text11,global,reloc=2,class=CODE,delta=1
    25                           	psect	text12,global,reloc=2,class=CODE,delta=1
    26                           	psect	intcode,global,reloc=2,class=CODE,delta=1
    27                           	psect	intcode_body,global,reloc=2,class=CODE,delta=1
    28                           	psect	text14,global,reloc=2,class=CODE,delta=1
    29                           	psect	text15,global,reloc=2,class=CODE,delta=1
    30                           	psect	text16,global,reloc=2,class=CODE,delta=1
    31                           	psect	text17,global,reloc=2,class=CODE,delta=1
    32                           	psect	text18,global,reloc=2,class=CODE,delta=1
    33                           	psect	text19,global,reloc=2,class=CODE,delta=1
    34                           	psect	text20,global,reloc=2,class=CODE,delta=1,inline
    35                           	psect	text21,global,reloc=2,class=CODE,delta=1
    36                           	psect	text22,global,reloc=2,class=CODE,delta=1
    37                           	psect	text23,global,reloc=2,class=CODE,delta=1
    38                           	psect	text24,global,reloc=2,class=CODE,delta=1
    39                           	psect	text25,global,reloc=2,class=CODE,delta=1
    40                           	psect	text26,global,reloc=2,class=CODE,delta=1
    41                           	psect	text27,global,reloc=2,class=CODE,delta=1
    42                           	psect	text28,global,reloc=2,class=CODE,delta=1
    43                           	psect	text29,global,reloc=2,class=CODE,delta=1
    44                           	psect	text30,global,reloc=2,class=CODE,delta=1
    45                           	psect	text31,global,reloc=2,class=CODE,delta=1
    46                           	psect	text32,global,reloc=2,class=CODE,delta=1
    47                           	psect	text33,global,reloc=2,class=CODE,delta=1
    48                           	psect	intsave_regs,global,class=BIGRAM,space=1,delta=1,noexec
    49                           	psect	rparam,global,class=COMRAM,space=1,delta=1,noexec
    50                           	psect	temp,global,ovrld,common,class=COMRAM,space=1,delta=1
    51                           	psect	config,global,abs,ovrld,class=CONFIG,space=4,delta=1,noexec
    52   000000                     
    53                           ; Generated 23/03/2023 GMT
    54                           ; 
    55                           ; Copyright © 2023, Microchip Technology Inc. and its subsidiaries ("Microchip")
    56                           ; All rights reserved.
    57                           ; 
    58                           ; This software is developed by Microchip Technology Inc. and its subsidiaries ("Microch
      +                          ip").
    59                           ; 
    60                           ; Redistribution and use in source and binary forms, with or without modification, are
    61                           ; permitted provided that the following conditions are met:
    62                           ; 
    63                           ;     1. Redistributions of source code must retain the above copyright notice, this lis
      +                          t of
    64                           ;        conditions and the following disclaimer.
    65                           ; 
    66                           ;     2. Redistributions in binary form must reproduce the above copyright notice, this 
      +                          list
    67                           ;        of conditions and the following disclaimer in the documentation and/or other
    68                           ;        materials provided with the distribution. Publication is not required when
    69                           ;        this file is used in an embedded application.
    70                           ; 
    71                           ;     3. Microchip's name may not be used to endorse or promote products derived from th
      +                          is
    72                           ;        software without specific prior written permission.
    73                           ; 
    74                           ; THIS SOFTWARE IS PROVIDED BY MICROCHIP "AS IS" AND ANY EXPRESS OR IMPLIED WARRANTIES,
    75                           ; INCLUDING, BUT NOT LIMITED TO, THE IMPLIED WARRANTIES OF MERCHANTABILITY AND FITNESS F
      +                          OR
    76                           ; PURPOSE ARE DISCLAIMED.  IN NO EVENT SHALL MICROCHIP BE LIABLE FOR ANY DIRECT, INDIREC
      +                          T,
    77                           ; INCIDENTAL, SPECIAL, EXEMPLARY, OR CONSEQUENTIAL DAMAGES (INCLUDING BUT NOT LIMITED TO
    78                           ; PROCUREMENT OF SUBSTITUTE GOODS OR SERVICES; LOSS OF USE, DATA OR PROFITS; OR BUSINESS
    79                           ; INTERRUPTION) HOWSOEVER CAUSED AND ON ANY THEORY OF LIABILITY, WHETHER IN CONTRACT, ST
      +                          RICT
    80                           ; LIABILITY, OR TORT (INCLUDING NEGLIGENCE OR OTHERWISE) ARISING IN ANY WAY OUT OF THE U
      +                          SE OF
    81                           ; THIS SOFTWARE, EVEN IF ADVISED OF THE POSSIBILITY OF SUCH DAMAGE.
    82                           ; 
    83                           ; 
    84                           ; Code-generator required, PIC18F4620 Definitions
    85                           ; 
    86                           ; SFR Addresses
    87   000000                     
    88                           	psect	idataCOMRAM
    89   001B20                     __pidataCOMRAM:
    90                           	callstack 0
    91                           
    92                           ;initializer for _LAT_REG
    93   001B20  89                 	db	137
    94   001B21  0F                 	db	15
    95   001B22  8A                 	db	138
    96   001B23  0F                 	db	15
    97   001B24  8B                 	db	139
    98   001B25  0F                 	db	15
    99   001B26  8C                 	db	140
   100   001B27  0F                 	db	15
   101   001B28  8D                 	db	141
   102   001B29  0F                 	db	15
   103                           
   104                           ;initializer for _TRIS_REG
   105   001B2A  92                 	db	146
   106   001B2B  0F                 	db	15
   107   001B2C  93                 	db	147
   108   001B2D  0F                 	db	15
   109   001B2E  94                 	db	148
   110   001B2F  0F                 	db	15
   111   001B30  95                 	db	149
   112   001B31  0F                 	db	15
   113   001B32  96                 	db	150
   114   001B33  0F                 	db	15
   115                           
   116                           ;initializer for _btn_1
   117   001B34  92                 	db	146
   118   001B35  00                 	db	0
   119   001B36  00                 	db	0
   120                           
   121                           ;initializer for _address
   122   001B37  C4                 	db	196
   123                           
   124                           ;initializer for _RB7_flag
   125   001B38  01                 	db	1
   126                           
   127                           ;initializer for _RB6_flag
   128   001B39  01                 	db	1
   129                           
   130                           ;initializer for _RB5_flag
   131   001B3A  01                 	db	1
   132                           
   133                           ;initializer for _RB4_flag
   134   001B3B  01                 	db	1
   135                           
   136                           ;initializer for _ack
   137   001B3C  01                 	db	1
   138                           
   139                           ;initializer for _sda
   140   001B3D  5A                 	db	90
   141                           
   142                           ;initializer for _scl
   143   001B3E  5A                 	db	90
   144                           
   145                           ;initializer for _RC_7
   146   001B3F  7A                 	db	122
   147                           
   148                           ;initializer for _RC_6
   149   001B40  72                 	db	114
   150                           
   151                           	psect	idataBANK0
   152   00189A                     __pidataBANK0:
   153                           	callstack 0
   154                           
   155                           ;initializer for _name
   156   00189A  41                 	db	65
   157   00189B  62                 	db	98
   158   00189C  64                 	db	100
   159   00189D  61                 	db	97
   160   00189E  6C                 	db	108
   161   00189F  6C                 	db	108
   162   0018A0  61                 	db	97
   163   0018A1  68                 	db	104
   164   0018A2  20                 	db	32
   165   0018A3  48                 	db	72
   166   0018A4  61                 	db	97
   167   0018A5  6E                 	db	110
   168   0018A6  79                 	db	121
   169   0018A7  20                 	db	32
   170   0018A8  52                 	db	82
   171   0018A9  61                 	db	97
   172   0018AA  67                 	db	103
   173   0018AB  61                 	db	97
   174   0018AC  62                 	db	98
   175   0018AD  20                 	db	32
   176   0018AE  4D                 	db	77
   177   0018AF  6F                 	db	111
   178   0018B0  68                 	db	104
   179   0018B1  61                 	db	97
   180   0018B2  6D                 	db	109
   181   0018B3  65                 	db	101
   182   0018B4  64                 	db	100
   183   0018B5  20                 	db	32
   184   0018B6  00                 	db	0
   185                           
   186                           ;initializer for _keyPad_btn
   187   0018B7  37                 	db	55
   188   0018B8  38                 	db	56
   189   0018B9  39                 	db	57
   190   0018BA  2F                 	db	47
   191   0018BB  34                 	db	52
   192   0018BC  35                 	db	53
   193   0018BD  36                 	db	54
   194   0018BE  2A                 	db	42
   195   0018BF  31                 	db	49
   196   0018C0  32                 	db	50
   197   0018C1  33                 	db	51
   198   0018C2  2D                 	db	45
   199   0018C3  63                 	db	99
   200   0018C4  30                 	db	48
   201   0018C5  3D                 	db	61
   202   0018C6  2B                 	db	43
   203                           
   204                           ;initializer for _PORT_REG
   205   0018C7  80                 	db	128
   206   0018C8  0F                 	db	15
   207   0018C9  81                 	db	129
   208   0018CA  0F                 	db	15
   209   0018CB  82                 	db	130
   210   0018CC  0F                 	db	15
   211   0018CD  83                 	db	131
   212   0018CE  0F                 	db	15
   213   0018CF  84                 	db	132
   214   0018D0  0F                 	db	15
   215                           
   216                           ;initializer for _lcd_1
   217   0018D1  02                 	db	2
   218   0018D2  0A                 	db	10
   219   0018D3  03                 	db	3
   220   0018D4  0B                 	db	11
   221   0018D5  13                 	db	19
   222   0018D6  1B                 	db	27
   223   0018D7  23                 	db	35
   224   0018D8  2B                 	db	43
   225   0018D9  33                 	db	51
   226   0018DA  3B                 	db	59
   227                           
   228                           ;initializer for _keypad_1
   229   0018DB  82                 	db	130
   230   0018DC  8A                 	db	138
   231   0018DD  92                 	db	146
   232   0018DE  9A                 	db	154
   233   0018DF  E2                 	db	226
   234   0018E0  EA                 	db	234
   235   0018E1  F2                 	db	242
   236   0018E2  FA                 	db	250
   237                           
   238                           ;initializer for _I2C_obj
   239   0018E3  00                 	db	0
   240   0018E4  00                 	db	0
   241   0018E5  00                 	db	0
   242   0018E6  28                 	db	40
   243   0018E7  0000               	dw	0
   244   0018E9  00                 	db	0
   245   0018EA  00                 	db	0
   246   0018EB  00                 	db	0
   247   0018EC  00                 	db	0
   248   0018ED  01                 	db	1
   249   000000                     _TMR1H	set	4047
   250   000000                     _TMR1L	set	4046
   251   000000                     _SSPADD	set	4040
   252   000000                     _SSPBUF	set	4041
   253   000000                     _SSPSTATbits	set	4039
   254   000000                     _SSPCON2bits	set	4037
   255   000000                     _SSPCON1bits	set	4038
   256   000000                     _INTCON2bits	set	4081
   257   000000                     _RCONbits	set	4048
   258   000000                     _INTCON3bits	set	4080
   259   000000                     _RCREG	set	4014
   260   000000                     _SPBRGH	set	4016
   261   000000                     _SPBRG	set	4015
   262   000000                     _TXREG	set	4013
   263   000000                     _TXSTAbits	set	4012
   264   000000                     _RCSTAbits	set	4011
   265   000000                     _EECON2	set	4007
   266   000000                     _EEDATA	set	4008
   267   000000                     _CCPR2H	set	4028
   268   000000                     _CCPR2L	set	4027
   269   000000                     _CCPR1H	set	4031
   270   000000                     _CCPR1L	set	4030
   271   000000                     _ADRESL	set	4035
   272   000000                     _ADRESH	set	4036
   273   000000                     _INTCONbits	set	4082
   274   000000                     _TRISD	set	3989
   275   000000                     _TRISC	set	3988
   276   000000                     _TRISB	set	3987
   277   000000                     _TRISE	set	3990
   278   000000                     _PORTBbits	set	3969
   279   000000                     _PIE1bits	set	3997
   280   000000                     _PIR1bits	set	3998
   281   000000                     _ADCON2bits	set	4032
   282   000000                     _ADCON1bits	set	4033
   283   000000                     _ADCON0bits	set	4034
   284   000000                     _LATA	set	3977
   285   000000                     _PORTE	set	3972
   286   000000                     _PORTD	set	3971
   287   000000                     _PORTC	set	3970
   288   000000                     _PORTB	set	3969
   289   000000                     _PORTA	set	3968
   290   000000                     _TRISA	set	3986
   291   000000                     _PIE2bits	set	4000
   292   000000                     _PIR2bits	set	4001
   293   000000                     _CCP2CONbits	set	4026
   294   000000                     _CCP1CONbits	set	4029
   295   000000                     _EECON1bits	set	4006
   296   000000                     _EEADR	set	4009
   297   000000                     _EEADRH	set	4010
   298   000000                     _T3CONbits	set	4017
   299   000000                     _TMR3H	set	4019
   300   000000                     _TMR3L	set	4018
   301   000000                     _BAUDCTLbits	set	4024
   302   000000                     _LATE	set	3981
   303   000000                     _LATD	set	3980
   304   000000                     _LATC	set	3979
   305   000000                     _LATB	set	3978
   306   000000                     _T0CONbits	set	4053
   307   000000                     _TMR2	set	4044
   308   000000                     _T2CONbits	set	4042
   309   000000                     _T1CONbits	set	4045
   310   000000                     _TMR0H	set	4055
   311   000000                     _TMR0L	set	4054
   312                           
   313                           	psect	smallconst
   314   001000                     __psmallconst:
   315                           	callstack 0
   316   001000  00                 	db	0
   317   001001                     STR_1:
   318   001001  25                 	db	37
   319   001002  69                 	db	105	;'i'
   320   001003  00                 	db	0
   321   001004  00                 	db	0	; dummy byte at the end
   322   000000                     
   323                           ; #config settings
   324                           
   325                           	psect	cinit
   326   001844                     __pcinit:
   327                           	callstack 0
   328   001844                     start_initialization:
   329                           	callstack 0
   330   001844                     __initialization:
   331                           	callstack 0
   332                           
   333                           ; Initialize objects allocated to BANK0 (84 bytes)
   334                           ; load TBLPTR registers with __pidataBANK0
   335   001844  0E9A               	movlw	low __pidataBANK0
   336   001846  6EF6               	movwf	tblptrl,c
   337   001848  0E18               	movlw	high __pidataBANK0
   338   00184A  6EF7               	movwf	tblptrh,c
   339   00184C  0E00               	movlw	low (__pidataBANK0 shr (0+16))
   340   00184E  6EF8               	movwf	tblptru,c
   341   001850  EE00  F080         	lfsr	0,__pdataBANK0
   342   001854  EE10 F054          	lfsr	1,84
   343   001858                     copy_data0:
   344   001858  0009               	tblrd		*+
   345   00185A  CFF5 FFEE          	movff	tablat,postinc0
   346   00185E  50E5               	movf	postdec1,w,c
   347   001860  50E1               	movf	fsr1l,w,c
   348   001862  E1FA               	bnz	copy_data0
   349                           
   350                           ; Initialize objects allocated to COMRAM (33 bytes)
   351                           ; load TBLPTR registers with __pidataCOMRAM
   352   001864  0E20               	movlw	low __pidataCOMRAM
   353   001866  6EF6               	movwf	tblptrl,c
   354   001868  0E1B               	movlw	high __pidataCOMRAM
   355   00186A  6EF7               	movwf	tblptrh,c
   356   00186C  0E00               	movlw	low (__pidataCOMRAM shr (0+16))
   357   00186E  6EF8               	movwf	tblptru,c
   358   001870  EE00  F049         	lfsr	0,__pdataCOMRAM
   359   001874  EE10 F021          	lfsr	1,33
   360   001878                     copy_data1:
   361   001878  0009               	tblrd		*+
   362   00187A  CFF5 FFEE          	movff	tablat,postinc0
   363   00187E  50E5               	movf	postdec1,w,c
   364   001880  50E1               	movf	fsr1l,w,c
   365   001882  E1FA               	bnz	copy_data1
   366                           
   367                           ; Clear objects allocated to COMRAM (72 bytes)
   368   001884  EE00  F001         	lfsr	0,__pbssCOMRAM
   369   001888  0E48               	movlw	72
   370   00188A                     clear_0:
   371   00188A  6AEE               	clrf	postinc0,c
   372   00188C  06E8               	decf	wreg,f,c
   373   00188E  E1FD               	bnz	clear_0
   374   001890                     end_of_initialization:
   375                           	callstack 0
   376   001890                     __end_of__initialization:
   377                           	callstack 0
   378   001890  907C               	bcf	int$flags,0,c	;clear compiler interrupt flag (level 1)
   379   001892  927C               	bcf	int$flags,1,c	;clear compiler interrupt flag (level 2)
   380   001894  0100               	movlb	0
   381   001896  EF0E  F00B         	goto	_main	;jump to C main() function
   382                           
   383                           	psect	bssCOMRAM
   384   000001                     __pbssCOMRAM:
   385                           	callstack 0
   386   000001                     	ds	5
   387   000006                     	ds	4
   388   00000A                     _preloaded_val:
   389                           	callstack 0
   390   00000A                     	ds	2
   391   00000C                     __timer3_interrupr_handler:
   392                           	callstack 0
   393   00000C                     	ds	2
   394   00000E                     _timer2_interrupr_handler:
   395                           	callstack 0
   396   00000E                     	ds	2
   397   000010                     _preloaded_val@mcal_timer1$F3736:
   398                           	callstack 0
   399   000010                     	ds	2
   400   000012                     __timer1_interrupr_handler:
   401                           	callstack 0
   402   000012                     	ds	2
   403   000014                     __preloaded_val:
   404                           	callstack 0
   405   000014                     	ds	2
   406   000016                     _timer0_interrupt_handler:
   407                           	callstack 0
   408   000016                     	ds	2
   409   000018                     _I2C_Bus_Col_Interrupt_handler:
   410                           	callstack 0
   411   000018                     	ds	2
   412   00001A                     _I2C_default_Interrupt_handler:
   413                           	callstack 0
   414   00001A                     	ds	2
   415   00001C                     _RB7_low_handler:
   416                           	callstack 0
   417   00001C                     	ds	2
   418   00001E                     _RB7_high_handler:
   419                           	callstack 0
   420   00001E                     	ds	2
   421   000020                     _RB6_low_handler:
   422                           	callstack 0
   423   000020                     	ds	2
   424   000022                     _RB6_high_handler:
   425                           	callstack 0
   426   000022                     	ds	2
   427   000024                     _RB5_low_handler:
   428                           	callstack 0
   429   000024                     	ds	2
   430   000026                     _RB5_high_handler:
   431                           	callstack 0
   432   000026                     	ds	2
   433   000028                     _RB4_low_handler:
   434                           	callstack 0
   435   000028                     	ds	2
   436   00002A                     _RB4_high_handler:
   437                           	callstack 0
   438   00002A                     	ds	2
   439   00002C                     _INT2_handler:
   440                           	callstack 0
   441   00002C                     	ds	2
   442   00002E                     _INT1_handler:
   443                           	callstack 0
   444   00002E                     	ds	2
   445   000030                     _INT0_handler:
   446                           	callstack 0
   447   000030                     	ds	2
   448   000032                     _Frame_error_interrupt_handler:
   449                           	callstack 0
   450   000032                     	ds	2
   451   000034                     _Overrun_interrupt_handler:
   452                           	callstack 0
   453   000034                     	ds	2
   454   000036                     _Recieve_interrupt_handler:
   455                           	callstack 0
   456   000036                     	ds	2
   457   000038                     _Transmit_interrupt_handler:
   458                           	callstack 0
   459   000038                     	ds	2
   460   00003A                     _CCP2_Interrupt_handler:
   461                           	callstack 0
   462   00003A                     	ds	2
   463   00003C                     _CCP1_Interrupt_handler:
   464                           	callstack 0
   465   00003C                     	ds	2
   466   00003E                     _ADC_InterruptHandler:
   467                           	callstack 0
   468   00003E                     	ds	2
   469   000040                     _data:
   470                           	callstack 0
   471   000040                     	ds	1
   472   000041                     _preloaded_val@mcal_timer2$F3891:
   473                           	callstack 0
   474   000041                     	ds	1
   475   000042                     ecu_relay_turn_off@F3205:
   476                           	callstack 0
   477   000042                     	ds	1
   478   000043                     ecu_relay_turn_on@F3200:
   479                           	callstack 0
   480   000043                     	ds	1
   481   000044                     ecu_relay_intialize@F3195:
   482                           	callstack 0
   483   000044                     	ds	1
   484   000045                     ecu_led_toggle@F3216:
   485                           	callstack 0
   486   000045                     	ds	1
   487   000046                     ecu_led_turn_on@F3211:
   488                           	callstack 0
   489   000046                     	ds	1
   490   000047                     ecu_led_turn_off@F3206:
   491                           	callstack 0
   492   000047                     	ds	1
   493   000048                     ecu_led_intialize@F3201:
   494                           	callstack 0
   495   000048                     	ds	1
   496                           
   497                           	psect	dataCOMRAM
   498   000049                     __pdataCOMRAM:
   499                           	callstack 0
   500   000049                     _LAT_REG:
   501                           	callstack 0
   502   000049                     	ds	10
   503   000053                     _TRIS_REG:
   504                           	callstack 0
   505   000053                     	ds	10
   506   00005D                     _btn_1:
   507                           	callstack 0
   508   00005D                     	ds	3
   509   000060                     _address:
   510                           	callstack 0
   511   000060                     	ds	1
   512   000061                     _RB7_flag:
   513                           	callstack 0
   514   000061                     	ds	1
   515   000062                     _RB6_flag:
   516                           	callstack 0
   517   000062                     	ds	1
   518   000063                     _RB5_flag:
   519                           	callstack 0
   520   000063                     	ds	1
   521   000064                     _RB4_flag:
   522                           	callstack 0
   523   000064                     	ds	1
   524   000065                     _ack:
   525                           	callstack 0
   526   000065                     	ds	1
   527   000066                     _sda:
   528                           	callstack 0
   529   000066                     	ds	1
   530   000067                     _scl:
   531                           	callstack 0
   532   000067                     	ds	1
   533   000068                     _RC_7:
   534                           	callstack 0
   535   000068                     	ds	1
   536   000069                     _RC_6:
   537                           	callstack 0
   538   000069                     	ds	1
   539                           
   540                           	psect	dataBANK0
   541   000080                     __pdataBANK0:
   542                           	callstack 0
   543   000080                     _name:
   544                           	callstack 0
   545   000080                     	ds	29
   546   00009D                     _keyPad_btn:
   547                           	callstack 0
   548   00009D                     	ds	16
   549   0000AD                     _PORT_REG:
   550                           	callstack 0
   551   0000AD                     	ds	10
   552   0000B7                     _lcd_1:
   553                           	callstack 0
   554   0000B7                     	ds	10
   555   0000C1                     _keypad_1:
   556                           	callstack 0
   557   0000C1                     	ds	8
   558   0000C9                     _I2C_obj:
   559                           	callstack 0
   560   0000C9                     	ds	11
   561                           
   562                           	psect	cstackCOMRAM
   563   00006A                     __pcstackCOMRAM:
   564                           	callstack 0
   565   00006A                     RB4_ISR@src:
   566                           	callstack 0
   567   00006A                     RB5_ISR@src:
   568                           	callstack 0
   569   00006A                     RB6_ISR@src:
   570                           	callstack 0
   571   00006A                     RB7_ISR@src:
   572                           	callstack 0
   573   00006A                     write_val_TMR0L_TMR0H@val:
   574                           	callstack 0
   575   00006A                     Timer1_write_to_reg@val:
   576                           	callstack 0
   577                           
   578                           ; 2 bytes @ 0x0
   579   00006A                     	ds	2
   580   00006C                     gpio_pin_direction_intialize@_pin_config:
   581                           	callstack 0
   582   00006C                     MSSP_I2C_Send_Start_Condition@i2c_obj:
   583                           	callstack 0
   584   00006C                     MSSP_I2C_Send_Stop_Condition@i2c_obj:
   585                           	callstack 0
   586   00006C                     MSSP_I2C_Transmit_Byte@i2c_obj:
   587                           	callstack 0
   588   00006C                     I2C_SMBus_Confg@i2c_obj:
   589                           	callstack 0
   590   00006C                     I2C_SlewRate_Confg@i2c_obj:
   591                           	callstack 0
   592   00006C                     I2C_Master_Confg@i2c_obj:
   593                           	callstack 0
   594   00006C                     I2C_Slave_Confg@i2c_obj:
   595                           	callstack 0
   596   00006C                     I2C_Interrupt_Cnfg@i2c_obj:
   597                           	callstack 0
   598                           
   599                           ; 2 bytes @ 0x2
   600   00006C                     	ds	2
   601   00006E                     ??_gpio_pin_direction_intialize:
   602   00006E                     ??_I2C_Slave_Confg:
   603   00006E                     MSSP_I2C_Transmit_Byte@data:
   604                           	callstack 0
   605   00006E                     I2C_SMBus_Confg@ret:
   606                           	callstack 0
   607   00006E                     I2C_SlewRate_Confg@ret:
   608                           	callstack 0
   609   00006E                     I2C_Interrupt_Cnfg@ret:
   610                           	callstack 0
   611                           
   612                           ; 1 bytes @ 0x4
   613   00006E                     	ds	1
   614   00006F                     I2C_Master_Confg@ret:
   615                           	callstack 0
   616   00006F                     MSSP_I2C_Transmit_Byte@ack:
   617                           	callstack 0
   618                           
   619                           ; 2 bytes @ 0x5
   620   00006F                     	ds	2
   621   000071                     ??_MSSP_I2C_Transmit_Byte:
   622   000071                     I2C_Slave_Confg@address_bytes:
   623                           	callstack 0
   624                           
   625                           ; 2 bytes @ 0x7
   626   000071                     	ds	2
   627   000073                     I2C_Mode_Configuration@i2c_obj:
   628                           	callstack 0
   629                           
   630                           ; 2 bytes @ 0x9
   631   000073                     	ds	1
   632   000074                     gpio_pin_direction_intialize@ret:
   633                           	callstack 0
   634                           
   635                           ; 1 bytes @ 0xA
   636   000074                     	ds	1
   637   000075                     ??_I2C_Mode_Configuration:
   638                           
   639                           ; 1 bytes @ 0xB
   640   000075                     	ds	1
   641   000076                     I2C_Mode_Configuration@ret:
   642                           	callstack 0
   643                           
   644                           ; 1 bytes @ 0xC
   645   000076                     	ds	1
   646   000077                     MSSP_I2C_Initialize@i2c_obj:
   647                           	callstack 0
   648                           
   649                           ; 2 bytes @ 0xD
   650   000077                     	ds	2
   651   000079                     MSSP_I2C_Initialize@ret:
   652                           	callstack 0
   653                           
   654                           ; 1 bytes @ 0xF
   655   000079                     	ds	1
   656   00007A                     ??_main:
   657                           
   658                           ; 1 bytes @ 0x10
   659   00007A                     	ds	1
   660   00007B                     main@i:
   661                           	callstack 0
   662                           
   663                           ; 1 bytes @ 0x11
   664   00007B                     	ds	1
   665                           
   666 ;;
   667 ;;Main: autosize = 0, tempsize = 1, incstack = 0, save=0
   668 ;;
   669 ;; *************** function _main *****************
   670 ;; Defined at:
   671 ;;		line 28 in file "application.c"
   672 ;; Parameters:    Size  Location     Type
   673 ;;		None
   674 ;; Auto vars:     Size  Location     Type
   675 ;;  i               1   17[COMRAM] unsigned char 
   676 ;; Return value:  Size  Location     Type
   677 ;;                  2  1569[None  ] int 
   678 ;; Registers used:
   679 ;;		wreg, fsr2l, fsr2h, status,2, status,0, prodl, prodh, cstack
   680 ;; Tracked objects:
   681 ;;		On entry : 0/0
   682 ;;		On exit  : 0/0
   683 ;;		Unchanged: 0/0
   684 ;; Data sizes:     COMRAM   BANK0   BANK1   BANK2   BANK3   BANK4   BANK5   BANK6   BANK7   BANK8   BANK9  BANK10  BANK1
      +1  BANK12  BANK13  BANK14  BANK15
   685 ;;      Params:         0       0       0       0       0       0       0       0       0       0       0       0       
      +0       0       0       0       0
   686 ;;      Locals:         1       0       0       0       0       0       0       0       0       0       0       0       
      +0       0       0       0       0
   687 ;;      Temps:          1       0       0       0       0       0       0       0       0       0       0       0       
      +0       0       0       0       0
   688 ;;      Totals:         2       0       0       0       0       0       0       0       0       0       0       0       
      +0       0       0       0       0
   689 ;;Total ram usage:        2 bytes
   690 ;; Hardware stack levels required when called: 7
   691 ;; This function calls:
   692 ;;		_MSSP_I2C_Send_Start_Condition
   693 ;;		_MSSP_I2C_Send_Stop_Condition
   694 ;;		_MSSP_I2C_Transmit_Byte
   695 ;;		_app_intialize
   696 ;; This function is called by:
   697 ;;		Startup code after reset
   698 ;; This function uses a non-reentrant model
   699 ;;
   700                           
   701                           	psect	text0
   702   00161C                     __ptext0:
   703                           	callstack 0
   704   00161C                     _main:
   705                           	callstack 24
   706   00161C                     
   707                           ;application.c: 30:      app_intialize();
   708   00161C  ECB1  F00D         	call	_app_intialize	;wreg free
   709   001620                     
   710                           ;application.c: 33:      for ( uint8 i = 0;name[i]!='\0' ;i++ ){
   711   001620  0E00               	movlw	0
   712   001622  6E7B               	movwf	main@i^0,c
   713   001624  EF53  F00B         	goto	l5968
   714   001628                     l5952:
   715                           
   716                           ;application.c: 34:         MSSP_I2C_Send_Start_Condition(&I2C_obj);
   717   001628  0EC9               	movlw	low _I2C_obj
   718   00162A  6E6C               	movwf	MSSP_I2C_Send_Start_Condition@i2c_obj^0,c
   719   00162C  0E00               	movlw	high _I2C_obj
   720   00162E  6E6D               	movwf	(MSSP_I2C_Send_Start_Condition@i2c_obj+1)^0,c
   721   001630  EC22  F00D         	call	_MSSP_I2C_Send_Start_Condition	;wreg free
   722   001634                     
   723                           ;application.c: 35:         MSSP_I2C_Transmit_Byte(&I2C_obj,0xA0,&ack);
   724   001634  0EC9               	movlw	low _I2C_obj
   725   001636  6E6C               	movwf	MSSP_I2C_Transmit_Byte@i2c_obj^0,c
   726   001638  0E00               	movlw	high _I2C_obj
   727   00163A  6E6D               	movwf	(MSSP_I2C_Transmit_Byte@i2c_obj+1)^0,c
   728   00163C  0EA0               	movlw	160
   729   00163E  6E6E               	movwf	MSSP_I2C_Transmit_Byte@data^0,c
   730   001640  0E65               	movlw	low _ack
   731   001642  6E6F               	movwf	MSSP_I2C_Transmit_Byte@ack^0,c
   732   001644  0E00               	movlw	high _ack
   733   001646  6E70               	movwf	(MSSP_I2C_Transmit_Byte@ack+1)^0,c
   734   001648  EC9F  F00C         	call	_MSSP_I2C_Transmit_Byte	;wreg free
   735   00164C                     
   736                           ;application.c: 36:         MSSP_I2C_Transmit_Byte(&I2C_obj,address++,&ack);
   737   00164C  0EC9               	movlw	low _I2C_obj
   738   00164E  6E6C               	movwf	MSSP_I2C_Transmit_Byte@i2c_obj^0,c
   739   001650  0E00               	movlw	high _I2C_obj
   740   001652  6E6D               	movwf	(MSSP_I2C_Transmit_Byte@i2c_obj+1)^0,c
   741   001654  C060  F06E         	movff	_address,MSSP_I2C_Transmit_Byte@data
   742   001658  0E65               	movlw	low _ack
   743   00165A  6E6F               	movwf	MSSP_I2C_Transmit_Byte@ack^0,c
   744   00165C  0E00               	movlw	high _ack
   745   00165E  6E70               	movwf	(MSSP_I2C_Transmit_Byte@ack+1)^0,c
   746   001660  EC9F  F00C         	call	_MSSP_I2C_Transmit_Byte	;wreg free
   747   001664  2A60               	incf	_address^0,f,c
   748   001666                     
   749                           ;application.c: 37:         MSSP_I2C_Transmit_Byte(&I2C_obj,name[i],&ack);
   750   001666  0EC9               	movlw	low _I2C_obj
   751   001668  6E6C               	movwf	MSSP_I2C_Transmit_Byte@i2c_obj^0,c
   752   00166A  0E00               	movlw	high _I2C_obj
   753   00166C  6E6D               	movwf	(MSSP_I2C_Transmit_Byte@i2c_obj+1)^0,c
   754   00166E  0E80               	movlw	low _name
   755   001670  247B               	addwf	main@i^0,w,c
   756   001672  6ED9               	movwf	fsr2l,c
   757   001674  6ADA               	clrf	fsr2h,c
   758   001676  0E00               	movlw	high _name
   759   001678  22DA               	addwfc	fsr2h,f,c
   760   00167A  50DF               	movf	indf2,w,c
   761   00167C  6E6E               	movwf	MSSP_I2C_Transmit_Byte@data^0,c
   762   00167E  0E65               	movlw	low _ack
   763   001680  6E6F               	movwf	MSSP_I2C_Transmit_Byte@ack^0,c
   764   001682  0E00               	movlw	high _ack
   765   001684  6E70               	movwf	(MSSP_I2C_Transmit_Byte@ack+1)^0,c
   766   001686  EC9F  F00C         	call	_MSSP_I2C_Transmit_Byte	;wreg free
   767   00168A                     
   768                           ;application.c: 38:         MSSP_I2C_Send_Stop_Condition(&I2C_obj);
   769   00168A  0EC9               	movlw	low _I2C_obj
   770   00168C  6E6C               	movwf	MSSP_I2C_Send_Stop_Condition@i2c_obj^0,c
   771   00168E  0E00               	movlw	high _I2C_obj
   772   001690  6E6D               	movwf	(MSSP_I2C_Send_Stop_Condition@i2c_obj+1)^0,c
   773   001692  EC0C  F00D         	call	_MSSP_I2C_Send_Stop_Condition	;wreg free
   774   001696                     
   775                           ;application.c: 39:         _delay((unsigned long)((10)*(4000000UL/4000.0)));
   776   001696  0E0D               	movlw	13
   777   001698  6E7A               	movwf	??_main^0,c
   778   00169A  0EFC               	movlw	252
   779   00169C                     u4967:
   780   00169C  2EE8               	decfsz	wreg,f,c
   781   00169E  D7FE               	bra	u4967
   782   0016A0  2E7A               	decfsz	??_main^0,f,c
   783   0016A2  D7FC               	bra	u4967
   784   0016A4                     
   785                           ;application.c: 41:      }
   786   0016A4  2A7B               	incf	main@i^0,f,c
   787   0016A6                     l5968:
   788   0016A6  0E80               	movlw	low _name
   789   0016A8  247B               	addwf	main@i^0,w,c
   790   0016AA  6ED9               	movwf	fsr2l,c
   791   0016AC  6ADA               	clrf	fsr2h,c
   792   0016AE  0E00               	movlw	high _name
   793   0016B0  22DA               	addwfc	fsr2h,f,c
   794   0016B2  50DF               	movf	indf2,w,c
   795   0016B4  A4D8               	btfss	status,2,c
   796   0016B6  EF5F  F00B         	goto	u4951
   797   0016BA  EF61  F00B         	goto	u4950
   798   0016BE                     u4951:
   799   0016BE  EF14  F00B         	goto	l5952
   800   0016C2                     u4950:
   801   0016C2                     l1573:
   802   0016C2  EF61  F00B         	goto	l1573
   803   0016C6  EF07  F000         	goto	start
   804   0016CA                     __end_of_main:
   805                           	callstack 0
   806                           
   807 ;; *************** function _app_intialize *****************
   808 ;; Defined at:
   809 ;;		line 61 in file "application.c"
   810 ;; Parameters:    Size  Location     Type
   811 ;;		None
   812 ;; Auto vars:     Size  Location     Type
   813 ;;		None
   814 ;; Return value:  Size  Location     Type
   815 ;;                  1    wreg      void 
   816 ;; Registers used:
   817 ;;		wreg, fsr2l, fsr2h, status,2, status,0, prodl, prodh, cstack
   818 ;; Tracked objects:
   819 ;;		On entry : 0/0
   820 ;;		On exit  : 0/0
   821 ;;		Unchanged: 0/0
   822 ;; Data sizes:     COMRAM   BANK0   BANK1   BANK2   BANK3   BANK4   BANK5   BANK6   BANK7   BANK8   BANK9  BANK10  BANK1
      +1  BANK12  BANK13  BANK14  BANK15
   823 ;;      Params:         0       0       0       0       0       0       0       0       0       0       0       0       
      +0       0       0       0       0
   824 ;;      Locals:         0       0       0       0       0       0       0       0       0       0       0       0       
      +0       0       0       0       0
   825 ;;      Temps:          0       0       0       0       0       0       0       0       0       0       0       0       
      +0       0       0       0       0
   826 ;;      Totals:         0       0       0       0       0       0       0       0       0       0       0       0       
      +0       0       0       0       0
   827 ;;Total ram usage:        0 bytes
   828 ;; Hardware stack levels used: 1
   829 ;; Hardware stack levels required when called: 6
   830 ;; This function calls:
   831 ;;		_MSSP_I2C_Initialize
   832 ;; This function is called by:
   833 ;;		_main
   834 ;; This function uses a non-reentrant model
   835 ;;
   836                           
   837                           	psect	text1
   838   001B62                     __ptext1:
   839                           	callstack 0
   840   001B62                     _app_intialize:
   841                           	callstack 24
   842   001B62                     
   843                           ;application.c: 63:     MSSP_I2C_Initialize(&I2C_obj);
   844   001B62  0EC9               	movlw	low _I2C_obj
   845   001B64  6E77               	movwf	MSSP_I2C_Initialize@i2c_obj^0,c
   846   001B66  0E00               	movlw	high _I2C_obj
   847   001B68  6E78               	movwf	(MSSP_I2C_Initialize@i2c_obj+1)^0,c
   848   001B6A  ECE8  F00B         	call	_MSSP_I2C_Initialize	;wreg free
   849   001B6E  0012               	return		;funcret
   850   001B70                     __end_of_app_intialize:
   851                           	callstack 0
   852                           
   853 ;; *************** function _MSSP_I2C_Initialize *****************
   854 ;; Defined at:
   855 ;;		line 35 in file "MCAL_layer/MSSP/I2C/MCAL_I2C.c"
   856 ;; Parameters:    Size  Location     Type
   857 ;;  i2c_obj         2   13[COMRAM] PTR const struct .
   858 ;;		 -> I2C_obj(11), 
   859 ;; Auto vars:     Size  Location     Type
   860 ;;  ret             1   15[COMRAM] unsigned char 
   861 ;; Return value:  Size  Location     Type
   862 ;;                  1    wreg      unsigned char 
   863 ;; Registers used:
   864 ;;		wreg, fsr2l, fsr2h, status,2, status,0, prodl, prodh, cstack
   865 ;; Tracked objects:
   866 ;;		On entry : 0/0
   867 ;;		On exit  : 0/0
   868 ;;		Unchanged: 0/0
   869 ;; Data sizes:     COMRAM   BANK0   BANK1   BANK2   BANK3   BANK4   BANK5   BANK6   BANK7   BANK8   BANK9  BANK10  BANK1
      +1  BANK12  BANK13  BANK14  BANK15
   870 ;;      Params:         2       0       0       0       0       0       0       0       0       0       0       0       
      +0       0       0       0       0
   871 ;;      Locals:         1       0       0       0       0       0       0       0       0       0       0       0       
      +0       0       0       0       0
   872 ;;      Temps:          0       0       0       0       0       0       0       0       0       0       0       0       
      +0       0       0       0       0
   873 ;;      Totals:         3       0       0       0       0       0       0       0       0       0       0       0       
      +0       0       0       0       0
   874 ;;Total ram usage:        3 bytes
   875 ;; Hardware stack levels used: 1
   876 ;; Hardware stack levels required when called: 5
   877 ;; This function calls:
   878 ;;		_I2C_Interrupt_Cnfg
   879 ;;		_I2C_Mode_Configuration
   880 ;;		_I2C_SMBus_Confg
   881 ;;		_I2C_SlewRate_Confg
   882 ;;		_gpio_pin_direction_intialize
   883 ;; This function is called by:
   884 ;;		_app_intialize
   885 ;; This function uses a non-reentrant model
   886 ;;
   887                           
   888                           	psect	text2
   889   0017D0                     __ptext2:
   890                           	callstack 0
   891   0017D0                     _MSSP_I2C_Initialize:
   892                           	callstack 24
   893   0017D0                     
   894                           ;MCAL_layer/MSSP/I2C/MCAL_I2C.c: 36:     Std_ReturnType ret = (Std_ReturnType)0x1;
   895   0017D0  0E01               	movlw	1
   896   0017D2  6E79               	movwf	MSSP_I2C_Initialize@ret^0,c
   897   0017D4                     
   898                           ;MCAL_layer/MSSP/I2C/MCAL_I2C.c: 37:     if(i2c_obj == ((void*)0)){
   899   0017D4  5077               	movf	MSSP_I2C_Initialize@i2c_obj^0,w,c
   900   0017D6  1078               	iorwf	(MSSP_I2C_Initialize@i2c_obj+1)^0,w,c
   901   0017D8  A4D8               	btfss	status,2,c
   902   0017DA  EFF1  F00B         	goto	u3511
   903   0017DE  EFF3  F00B         	goto	u3510
   904   0017E2                     u3511:
   905   0017E2  EFF5  F00B         	goto	l1162
   906   0017E6                     u3510:
   907   0017E6                     
   908                           ;MCAL_layer/MSSP/I2C/MCAL_I2C.c: 39:     }
   909   0017E6  EF21  F00C         	goto	l1164
   910   0017EA                     l1162:
   911                           
   912                           ;MCAL_layer/MSSP/I2C/MCAL_I2C.c: 42:          SSPCON1bits.SSPEN = 0;
   913   0017EA  9AC6               	bcf	198,5,c	;volatile
   914   0017EC                     
   915                           ;MCAL_layer/MSSP/I2C/MCAL_I2C.c: 44:         ret |= gpio_pin_direction_intialize(&sda);
   916   0017EC  0E66               	movlw	low _sda
   917   0017EE  6E6C               	movwf	gpio_pin_direction_intialize@_pin_config^0,c
   918   0017F0  0E00               	movlw	high _sda
   919   0017F2  6E6D               	movwf	(gpio_pin_direction_intialize@_pin_config+1)^0,c
   920   0017F4  ECF6  F009         	call	_gpio_pin_direction_intialize	;wreg free
   921   0017F8  1279               	iorwf	MSSP_I2C_Initialize@ret^0,f,c
   922                           
   923                           ;MCAL_layer/MSSP/I2C/MCAL_I2C.c: 45:         ret |= gpio_pin_direction_intialize(&scl);
   924   0017FA  0E67               	movlw	low _scl
   925   0017FC  6E6C               	movwf	gpio_pin_direction_intialize@_pin_config^0,c
   926   0017FE  0E00               	movlw	high _scl
   927   001800  6E6D               	movwf	(gpio_pin_direction_intialize@_pin_config+1)^0,c
   928   001802  ECF6  F009         	call	_gpio_pin_direction_intialize	;wreg free
   929   001806  1279               	iorwf	MSSP_I2C_Initialize@ret^0,f,c
   930   001808                     
   931                           ;MCAL_layer/MSSP/I2C/MCAL_I2C.c: 48:         ret |= I2C_Interrupt_Cnfg(i2c_obj);
   932   001808  C077  F06C         	movff	MSSP_I2C_Initialize@i2c_obj,I2C_Interrupt_Cnfg@i2c_obj
   933   00180C  C078  F06D         	movff	MSSP_I2C_Initialize@i2c_obj+1,I2C_Interrupt_Cnfg@i2c_obj+1
   934   001810  EC77  F00C         	call	_I2C_Interrupt_Cnfg	;wreg free
   935   001814  1279               	iorwf	MSSP_I2C_Initialize@ret^0,f,c
   936   001816                     
   937                           ;MCAL_layer/MSSP/I2C/MCAL_I2C.c: 51:          ret |= I2C_SMBus_Confg(i2c_obj);
   938   001816  C077  F06C         	movff	MSSP_I2C_Initialize@i2c_obj,I2C_SMBus_Confg@i2c_obj
   939   00181A  C078  F06D         	movff	MSSP_I2C_Initialize@i2c_obj+1,I2C_SMBus_Confg@i2c_obj+1
   940   00181E  ECE8  F00C         	call	_I2C_SMBus_Confg	;wreg free
   941   001822  1279               	iorwf	MSSP_I2C_Initialize@ret^0,f,c
   942   001824                     
   943                           ;MCAL_layer/MSSP/I2C/MCAL_I2C.c: 53:          ret |= I2C_SlewRate_Confg(i2c_obj);
   944   001824  C077  F06C         	movff	MSSP_I2C_Initialize@i2c_obj,I2C_SlewRate_Confg@i2c_obj
   945   001828  C078  F06D         	movff	MSSP_I2C_Initialize@i2c_obj+1,I2C_SlewRate_Confg@i2c_obj+1
   946   00182C  ECC4  F00C         	call	_I2C_SlewRate_Confg	;wreg free
   947   001830  1279               	iorwf	MSSP_I2C_Initialize@ret^0,f,c
   948   001832                     
   949                           ;MCAL_layer/MSSP/I2C/MCAL_I2C.c: 55:          I2C_Mode_Configuration(i2c_obj);
   950   001832  C077  F073         	movff	MSSP_I2C_Initialize@i2c_obj,I2C_Mode_Configuration@i2c_obj
   951   001836  C078  F074         	movff	MSSP_I2C_Initialize@i2c_obj+1,I2C_Mode_Configuration@i2c_obj+1
   952   00183A  ECAC  F00B         	call	_I2C_Mode_Configuration	;wreg free
   953   00183E                     
   954                           ;MCAL_layer/MSSP/I2C/MCAL_I2C.c: 57:          SSPCON1bits.SSPEN = 1;
   955   00183E  8AC6               	bsf	198,5,c	;volatile
   956   001840                     
   957                           ;MCAL_layer/MSSP/I2C/MCAL_I2C.c: 59:          SSPCON1bits.CKP = 1;
   958   001840  88C6               	bsf	198,4,c	;volatile
   959   001842                     l1164:
   960   001842  0012               	return		;funcret
   961   001844                     __end_of_MSSP_I2C_Initialize:
   962                           	callstack 0
   963                           
   964 ;; *************** function _gpio_pin_direction_intialize *****************
   965 ;; Defined at:
   966 ;;		line 19 in file "MCAL_layer/GPIO/hal_gpio.c"
   967 ;; Parameters:    Size  Location     Type
   968 ;;  _pin_config     2    2[COMRAM] PTR const struct .
   969 ;;		 -> scl(1), sda(1), RC_7(1), RC_6(1), 
   970 ;;		 -> ecu_relay_intialize@relay_pin(1), ecu_led_intialize@pin_obj(1), 
   971 ;; Auto vars:     Size  Location     Type
   972 ;;  ret             1   10[COMRAM] unsigned char 
   973 ;; Return value:  Size  Location     Type
   974 ;;                  1    wreg      unsigned char 
   975 ;; Registers used:
   976 ;;		wreg, fsr2l, fsr2h, status,2, status,0, prodl, prodh
   977 ;; Tracked objects:
   978 ;;		On entry : 0/0
   979 ;;		On exit  : 0/0
   980 ;;		Unchanged: 0/0
   981 ;; Data sizes:     COMRAM   BANK0   BANK1   BANK2   BANK3   BANK4   BANK5   BANK6   BANK7   BANK8   BANK9  BANK10  BANK1
      +1  BANK12  BANK13  BANK14  BANK15
   982 ;;      Params:         2       0       0       0       0       0       0       0       0       0       0       0       
      +0       0       0       0       0
   983 ;;      Locals:         1       0       0       0       0       0       0       0       0       0       0       0       
      +0       0       0       0       0
   984 ;;      Temps:          6       0       0       0       0       0       0       0       0       0       0       0       
      +0       0       0       0       0
   985 ;;      Totals:         9       0       0       0       0       0       0       0       0       0       0       0       
      +0       0       0       0       0
   986 ;;Total ram usage:        9 bytes
   987 ;; Hardware stack levels used: 1
   988 ;; Hardware stack levels required when called: 3
   989 ;; This function calls:
   990 ;;		Nothing
   991 ;; This function is called by:
   992 ;;		_MSSP_I2C_Initialize
   993 ;;		_ecu_btn_intialize
   994 ;;		_hal_CCPx_initialize
   995 ;;		_mcal_EUSART_initialize
   996 ;;		_gpio_pin_intialize
   997 ;;		_mcal_INTx_initialize
   998 ;;		_mcal_RBx_initialize
   999 ;; This function uses a non-reentrant model
  1000 ;;
  1001                           
  1002                           	psect	text3
  1003   0013EC                     __ptext3:
  1004                           	callstack 0
  1005   0013EC                     _gpio_pin_direction_intialize:
  1006                           	callstack 25
  1007   0013EC                     
  1008                           ;MCAL_layer/GPIO/hal_gpio.c: 19: Std_ReturnType gpio_pin_direction_intialize (const pin_
      +                          config *_pin_config);MCAL_layer/GPIO/hal_gpio.c: 20: {;MCAL_layer/GPIO/hal_gpio.c: 21:  
      +                             Std_ReturnType ret = (Std_ReturnType)0x0;
  1009   0013EC  0E00               	movlw	0
  1010   0013EE  6E74               	movwf	gpio_pin_direction_intialize@ret^0,c
  1011   0013F0                     
  1012                           ;MCAL_layer/GPIO/hal_gpio.c: 22:     if(_pin_config == ((void*)0) || _pin_config->port_i
      +                          ndex >= (uint8)0x05 )
  1013   0013F0  506C               	movf	gpio_pin_direction_intialize@_pin_config^0,w,c
  1014   0013F2  106D               	iorwf	(gpio_pin_direction_intialize@_pin_config+1)^0,w,c
  1015   0013F4  B4D8               	btfsc	status,2,c
  1016   0013F6  EFFF  F009         	goto	u3341
  1017   0013FA  EF01  F00A         	goto	u3340
  1018   0013FE                     u3341:
  1019   0013FE  EF10  F00A         	goto	l4902
  1020   001402                     u3340:
  1021   001402  C06C  FFD9         	movff	gpio_pin_direction_intialize@_pin_config,fsr2l
  1022   001406  C06D  FFDA         	movff	gpio_pin_direction_intialize@_pin_config+1,fsr2h
  1023   00140A  50DF               	movf	223,w,c
  1024   00140C  0B07               	andlw	7
  1025   00140E  6E6E               	movwf	??_gpio_pin_direction_intialize^0,c
  1026   001410  0E04               	movlw	4
  1027   001412  646E               	cpfsgt	??_gpio_pin_direction_intialize^0,c
  1028   001414  EF0E  F00A         	goto	u3351
  1029   001418  EF10  F00A         	goto	u3350
  1030   00141C                     u3351:
  1031   00141C  EF73  F00A         	goto	l4910
  1032   001420                     u3350:
  1033   001420                     l4902:
  1034                           
  1035                           ;MCAL_layer/GPIO/hal_gpio.c: 23:     {;MCAL_layer/GPIO/hal_gpio.c: 24:         ret = (St
      +                          d_ReturnType)0x1;
  1036   001420  0E01               	movlw	1
  1037   001422  6E74               	movwf	gpio_pin_direction_intialize@ret^0,c
  1038                           
  1039                           ;MCAL_layer/GPIO/hal_gpio.c: 25:     }
  1040   001424  EF94  F00A         	goto	l4912
  1041   001428                     l4904:
  1042                           
  1043                           ;MCAL_layer/GPIO/hal_gpio.c: 31:                     (*TRIS_REG[_pin_config->port_index]
      +                           &= ~((uint8)0x01 << (_pin_config->pin_index)));
  1044   001428  C06C  FFD9         	movff	gpio_pin_direction_intialize@_pin_config,fsr2l
  1045   00142C  C06D  FFDA         	movff	gpio_pin_direction_intialize@_pin_config+1,fsr2h
  1046   001430  30DF               	rrcf	223,w,c
  1047   001432  32E8               	rrcf	wreg,f,c
  1048   001434  32E8               	rrcf	wreg,f,c
  1049   001436  0B07               	andlw	7
  1050   001438  6E6E               	movwf	??_gpio_pin_direction_intialize^0,c
  1051   00143A  0E01               	movlw	1
  1052   00143C  6E6F               	movwf	(??_gpio_pin_direction_intialize+1)^0,c
  1053   00143E  2A6E               	incf	??_gpio_pin_direction_intialize^0,f,c
  1054   001440  EF24  F00A         	goto	u3364
  1055   001444                     u3365:
  1056   001444  90D8               	bcf	status,0,c
  1057   001446  366F               	rlcf	(??_gpio_pin_direction_intialize+1)^0,f,c
  1058   001448                     u3364:
  1059   001448  2E6E               	decfsz	??_gpio_pin_direction_intialize^0,f,c
  1060   00144A  EF22  F00A         	goto	u3365
  1061   00144E  506F               	movf	(??_gpio_pin_direction_intialize+1)^0,w,c
  1062   001450  0AFF               	xorlw	255
  1063   001452  6E70               	movwf	(??_gpio_pin_direction_intialize+2)^0,c
  1064   001454  C06C  FFD9         	movff	gpio_pin_direction_intialize@_pin_config,fsr2l
  1065   001458  C06D  FFDA         	movff	gpio_pin_direction_intialize@_pin_config+1,fsr2h
  1066   00145C  50DF               	movf	223,w,c
  1067   00145E  0B07               	andlw	7
  1068   001460  6E71               	movwf	(??_gpio_pin_direction_intialize+3)^0,c
  1069   001462  5071               	movf	(??_gpio_pin_direction_intialize+3)^0,w,c
  1070   001464  0D02               	mullw	2
  1071   001466  0E53               	movlw	low _TRIS_REG
  1072   001468  24F3               	addwf	243,w,c
  1073   00146A  6ED9               	movwf	fsr2l,c
  1074   00146C  0E00               	movlw	high _TRIS_REG
  1075   00146E  20F4               	addwfc	prodh,w,c
  1076   001470  6EDA               	movwf	fsr2h,c
  1077   001472  CFDE F072          	movff	postinc2,??_gpio_pin_direction_intialize+4
  1078   001476  CFDD F073          	movff	postdec2,??_gpio_pin_direction_intialize+5
  1079   00147A  C072  FFD9         	movff	??_gpio_pin_direction_intialize+4,fsr2l
  1080   00147E  C073  FFDA         	movff	??_gpio_pin_direction_intialize+5,fsr2h
  1081   001482  5070               	movf	(??_gpio_pin_direction_intialize+2)^0,w,c
  1082   001484  16DF               	andwf	indf2,f,c
  1083                           
  1084                           ;MCAL_layer/GPIO/hal_gpio.c: 32:                     break;
  1085   001486  EF94  F00A         	goto	l4912
  1086   00148A                     l4906:
  1087                           
  1088                           ;MCAL_layer/GPIO/hal_gpio.c: 34:                     (*TRIS_REG[_pin_config->port_index]
      +                           |= ((uint8)0x01 << (_pin_config->pin_index)));
  1089   00148A  C06C  FFD9         	movff	gpio_pin_direction_intialize@_pin_config,fsr2l
  1090   00148E  C06D  FFDA         	movff	gpio_pin_direction_intialize@_pin_config+1,fsr2h
  1091   001492  30DF               	rrcf	223,w,c
  1092   001494  32E8               	rrcf	wreg,f,c
  1093   001496  32E8               	rrcf	wreg,f,c
  1094   001498  0B07               	andlw	7
  1095   00149A  6E6E               	movwf	??_gpio_pin_direction_intialize^0,c
  1096   00149C  0E01               	movlw	1
  1097   00149E  6E6F               	movwf	(??_gpio_pin_direction_intialize+1)^0,c
  1098   0014A0  2A6E               	incf	??_gpio_pin_direction_intialize^0,f,c
  1099   0014A2  EF55  F00A         	goto	u3374
  1100   0014A6                     u3375:
  1101   0014A6  90D8               	bcf	status,0,c
  1102   0014A8  366F               	rlcf	(??_gpio_pin_direction_intialize+1)^0,f,c
  1103   0014AA                     u3374:
  1104   0014AA  2E6E               	decfsz	??_gpio_pin_direction_intialize^0,f,c
  1105   0014AC  EF53  F00A         	goto	u3375
  1106   0014B0  C06C  FFD9         	movff	gpio_pin_direction_intialize@_pin_config,fsr2l
  1107   0014B4  C06D  FFDA         	movff	gpio_pin_direction_intialize@_pin_config+1,fsr2h
  1108   0014B8  50DF               	movf	223,w,c
  1109   0014BA  0B07               	andlw	7
  1110   0014BC  6E70               	movwf	(??_gpio_pin_direction_intialize+2)^0,c
  1111   0014BE  5070               	movf	(??_gpio_pin_direction_intialize+2)^0,w,c
  1112   0014C0  0D02               	mullw	2
  1113   0014C2  0E53               	movlw	low _TRIS_REG
  1114   0014C4  24F3               	addwf	243,w,c
  1115   0014C6  6ED9               	movwf	fsr2l,c
  1116   0014C8  0E00               	movlw	high _TRIS_REG
  1117   0014CA  20F4               	addwfc	prodh,w,c
  1118   0014CC  6EDA               	movwf	fsr2h,c
  1119   0014CE  CFDE F071          	movff	postinc2,??_gpio_pin_direction_intialize+3
  1120   0014D2  CFDD F072          	movff	postdec2,??_gpio_pin_direction_intialize+4
  1121   0014D6  C071  FFD9         	movff	??_gpio_pin_direction_intialize+3,fsr2l
  1122   0014DA  C072  FFDA         	movff	??_gpio_pin_direction_intialize+4,fsr2h
  1123   0014DE  506F               	movf	(??_gpio_pin_direction_intialize+1)^0,w,c
  1124   0014E0  12DF               	iorwf	indf2,f,c
  1125                           
  1126                           ;MCAL_layer/GPIO/hal_gpio.c: 35:                     break;
  1127   0014E2  EF94  F00A         	goto	l4912
  1128   0014E6                     l4910:
  1129   0014E6  C06C  FFD9         	movff	gpio_pin_direction_intialize@_pin_config,fsr2l
  1130   0014EA  C06D  FFDA         	movff	gpio_pin_direction_intialize@_pin_config+1,fsr2h
  1131   0014EE  BCDF               	btfsc	indf2,6,c
  1132   0014F0  EF7C  F00A         	goto	u3381
  1133   0014F4  EF7F  F00A         	goto	u3380
  1134   0014F8                     u3381:
  1135   0014F8  0E01               	movlw	1
  1136   0014FA  EF80  F00A         	goto	u3390
  1137   0014FE                     u3380:
  1138   0014FE  0E00               	movlw	0
  1139   001500                     u3390:
  1140   001500  6E6E               	movwf	??_gpio_pin_direction_intialize^0,c
  1141   001502  6A6F               	clrf	(??_gpio_pin_direction_intialize+1)^0,c
  1142                           
  1143                           ; Switch on 2 bytes has been partitioned into a top level switch of size 1, and 1 sub-sw
      +                          itches
  1144                           ; Switch size 1, requested type "simple"
  1145                           ; Number of cases is 1, Range of values is 0 to 0
  1146                           ; switch strategies available:
  1147                           ; Name         Instructions Cycles
  1148                           ; simple_byte            4     3 (average)
  1149                           ;	Chosen strategy is simple_byte
  1150   001504  506F               	movf	(??_gpio_pin_direction_intialize+1)^0,w,c
  1151   001506  0A00               	xorlw	0	; case 0
  1152   001508  B4D8               	btfsc	status,2,c
  1153   00150A  EF89  F00A         	goto	l5974
  1154   00150E  EF10  F00A         	goto	l4902
  1155   001512                     l5974:
  1156                           
  1157                           ; Switch size 1, requested type "simple"
  1158                           ; Number of cases is 2, Range of values is 0 to 1
  1159                           ; switch strategies available:
  1160                           ; Name         Instructions Cycles
  1161                           ; simple_byte            7     4 (average)
  1162                           ;	Chosen strategy is simple_byte
  1163   001512  506E               	movf	??_gpio_pin_direction_intialize^0,w,c
  1164   001514  0A00               	xorlw	0	; case 0
  1165   001516  B4D8               	btfsc	status,2,c
  1166   001518  EF14  F00A         	goto	l4904
  1167   00151C  0A01               	xorlw	1	; case 1
  1168   00151E  B4D8               	btfsc	status,2,c
  1169   001520  EF45  F00A         	goto	l4906
  1170   001524  EF10  F00A         	goto	l4902
  1171   001528                     l4912:
  1172                           
  1173                           ;MCAL_layer/GPIO/hal_gpio.c: 40:     return ret;
  1174   001528  5074               	movf	gpio_pin_direction_intialize@ret^0,w,c
  1175   00152A  0012               	return		;funcret
  1176   00152C                     __end_of_gpio_pin_direction_intialize:
  1177                           	callstack 0
  1178                           
  1179 ;; *************** function _I2C_SlewRate_Confg *****************
  1180 ;; Defined at:
  1181 ;;		line 158 in file "MCAL_layer/MSSP/I2C/MCAL_I2C.c"
  1182 ;; Parameters:    Size  Location     Type
  1183 ;;  i2c_obj         2    2[COMRAM] PTR const struct .
  1184 ;;		 -> I2C_obj(11), 
  1185 ;; Auto vars:     Size  Location     Type
  1186 ;;  ret             1    4[COMRAM] unsigned char 
  1187 ;; Return value:  Size  Location     Type
  1188 ;;                  1    wreg      unsigned char 
  1189 ;; Registers used:
  1190 ;;		wreg, fsr2l, fsr2h, status,2, status,0
  1191 ;; Tracked objects:
  1192 ;;		On entry : 0/0
  1193 ;;		On exit  : 0/0
  1194 ;;		Unchanged: 0/0
  1195 ;; Data sizes:     COMRAM   BANK0   BANK1   BANK2   BANK3   BANK4   BANK5   BANK6   BANK7   BANK8   BANK9  BANK10  BANK1
      +1  BANK12  BANK13  BANK14  BANK15
  1196 ;;      Params:         2       0       0       0       0       0       0       0       0       0       0       0       
      +0       0       0       0       0
  1197 ;;      Locals:         1       0       0       0       0       0       0       0       0       0       0       0       
      +0       0       0       0       0
  1198 ;;      Temps:          0       0       0       0       0       0       0       0       0       0       0       0       
      +0       0       0       0       0
  1199 ;;      Totals:         3       0       0       0       0       0       0       0       0       0       0       0       
      +0       0       0       0       0
  1200 ;;Total ram usage:        3 bytes
  1201 ;; Hardware stack levels used: 1
  1202 ;; Hardware stack levels required when called: 3
  1203 ;; This function calls:
  1204 ;;		Nothing
  1205 ;; This function is called by:
  1206 ;;		_MSSP_I2C_Initialize
  1207 ;; This function uses a non-reentrant model
  1208 ;;
  1209                           
  1210                           	psect	text4
  1211   001988                     __ptext4:
  1212                           	callstack 0
  1213   001988                     _I2C_SlewRate_Confg:
  1214                           	callstack 25
  1215   001988                     
  1216                           ;MCAL_layer/MSSP/I2C/MCAL_I2C.c: 160:     if(i2c_obj == ((void*)0)){
  1217   001988  506C               	movf	I2C_SlewRate_Confg@i2c_obj^0,w,c
  1218   00198A  106D               	iorwf	(I2C_SlewRate_Confg@i2c_obj+1)^0,w,c
  1219   00198C  A4D8               	btfss	status,2,c
  1220   00198E  EFCB  F00C         	goto	u3431
  1221   001992  EFCD  F00C         	goto	u3430
  1222   001996                     u3431:
  1223   001996  EFD1  F00C         	goto	l4958
  1224   00199A                     u3430:
  1225   00199A                     
  1226                           ;MCAL_layer/MSSP/I2C/MCAL_I2C.c: 161:         ret = (Std_ReturnType)0x1;
  1227   00199A  0E01               	movlw	1
  1228   00199C  6E6E               	movwf	I2C_SlewRate_Confg@ret^0,c
  1229                           
  1230                           ;MCAL_layer/MSSP/I2C/MCAL_I2C.c: 162:     }
  1231   00199E  EFE6  F00C         	goto	l1218
  1232   0019A2                     l4958:
  1233                           
  1234                           ;MCAL_layer/MSSP/I2C/MCAL_I2C.c: 164:          if(i2c_obj->i2c_slew_rate == 0x01){
  1235   0019A2  EE20 F003          	lfsr	2,3
  1236   0019A6  506C               	movf	I2C_SlewRate_Confg@i2c_obj^0,w,c
  1237   0019A8  26D9               	addwf	fsr2l,f,c
  1238   0019AA  506D               	movf	(I2C_SlewRate_Confg@i2c_obj+1)^0,w,c
  1239   0019AC  22DA               	addwfc	fsr2h,f,c
  1240   0019AE  A8DF               	btfss	indf2,4,c
  1241   0019B0  EFDC  F00C         	goto	u3441
  1242   0019B4  EFDE  F00C         	goto	u3440
  1243   0019B8                     u3441:
  1244   0019B8  EFE3  F00C         	goto	l1219
  1245   0019BC                     u3440:
  1246   0019BC                     
  1247                           ;MCAL_layer/MSSP/I2C/MCAL_I2C.c: 165:             SSPSTATbits.SMP = 0;
  1248   0019BC  9EC7               	bcf	199,7,c	;volatile
  1249   0019BE                     l4962:
  1250                           
  1251                           ;MCAL_layer/MSSP/I2C/MCAL_I2C.c: 166:             ret = (Std_ReturnType)0x0;
  1252   0019BE  0E00               	movlw	0
  1253   0019C0  6E6E               	movwf	I2C_SlewRate_Confg@ret^0,c
  1254                           
  1255                           ;MCAL_layer/MSSP/I2C/MCAL_I2C.c: 167:          }
  1256   0019C2  EFE6  F00C         	goto	l1218
  1257   0019C6                     l1219:
  1258                           
  1259                           ;MCAL_layer/MSSP/I2C/MCAL_I2C.c: 169:             SSPSTATbits.SMP = 1;
  1260   0019C6  8EC7               	bsf	199,7,c	;volatile
  1261   0019C8  EFDF  F00C         	goto	l4962
  1262   0019CC                     l1218:
  1263                           
  1264                           ;MCAL_layer/MSSP/I2C/MCAL_I2C.c: 174:     return ret;
  1265   0019CC  506E               	movf	I2C_SlewRate_Confg@ret^0,w,c
  1266   0019CE  0012               	return		;funcret
  1267   0019D0                     __end_of_I2C_SlewRate_Confg:
  1268                           	callstack 0
  1269                           
  1270 ;; *************** function _I2C_SMBus_Confg *****************
  1271 ;; Defined at:
  1272 ;;		line 141 in file "MCAL_layer/MSSP/I2C/MCAL_I2C.c"
  1273 ;; Parameters:    Size  Location     Type
  1274 ;;  i2c_obj         2    2[COMRAM] PTR const struct .
  1275 ;;		 -> I2C_obj(11), 
  1276 ;; Auto vars:     Size  Location     Type
  1277 ;;  ret             1    4[COMRAM] unsigned char 
  1278 ;; Return value:  Size  Location     Type
  1279 ;;                  1    wreg      unsigned char 
  1280 ;; Registers used:
  1281 ;;		wreg, fsr2l, fsr2h, status,2, status,0
  1282 ;; Tracked objects:
  1283 ;;		On entry : 0/0
  1284 ;;		On exit  : 0/0
  1285 ;;		Unchanged: 0/0
  1286 ;; Data sizes:     COMRAM   BANK0   BANK1   BANK2   BANK3   BANK4   BANK5   BANK6   BANK7   BANK8   BANK9  BANK10  BANK1
      +1  BANK12  BANK13  BANK14  BANK15
  1287 ;;      Params:         2       0       0       0       0       0       0       0       0       0       0       0       
      +0       0       0       0       0
  1288 ;;      Locals:         1       0       0       0       0       0       0       0       0       0       0       0       
      +0       0       0       0       0
  1289 ;;      Temps:          0       0       0       0       0       0       0       0       0       0       0       0       
      +0       0       0       0       0
  1290 ;;      Totals:         3       0       0       0       0       0       0       0       0       0       0       0       
      +0       0       0       0       0
  1291 ;;Total ram usage:        3 bytes
  1292 ;; Hardware stack levels used: 1
  1293 ;; Hardware stack levels required when called: 3
  1294 ;; This function calls:
  1295 ;;		Nothing
  1296 ;; This function is called by:
  1297 ;;		_MSSP_I2C_Initialize
  1298 ;; This function uses a non-reentrant model
  1299 ;;
  1300                           
  1301                           	psect	text5
  1302   0019D0                     __ptext5:
  1303                           	callstack 0
  1304   0019D0                     _I2C_SMBus_Confg:
  1305                           	callstack 25
  1306   0019D0                     
  1307                           ;MCAL_layer/MSSP/I2C/MCAL_I2C.c: 143:     if(i2c_obj == ((void*)0)){
  1308   0019D0  506C               	movf	I2C_SMBus_Confg@i2c_obj^0,w,c
  1309   0019D2  106D               	iorwf	(I2C_SMBus_Confg@i2c_obj+1)^0,w,c
  1310   0019D4  A4D8               	btfss	status,2,c
  1311   0019D6  EFEF  F00C         	goto	u3411
  1312   0019DA  EFF1  F00C         	goto	u3410
  1313   0019DE                     u3411:
  1314   0019DE  EFF5  F00C         	goto	l4942
  1315   0019E2                     u3410:
  1316   0019E2                     
  1317                           ;MCAL_layer/MSSP/I2C/MCAL_I2C.c: 144:         ret = (Std_ReturnType)0x1;
  1318   0019E2  0E01               	movlw	1
  1319   0019E4  6E6E               	movwf	I2C_SMBus_Confg@ret^0,c
  1320                           
  1321                           ;MCAL_layer/MSSP/I2C/MCAL_I2C.c: 145:     }
  1322   0019E6  EF0A  F00D         	goto	l1211
  1323   0019EA                     l4942:
  1324                           
  1325                           ;MCAL_layer/MSSP/I2C/MCAL_I2C.c: 147:         if(i2c_obj->i2c_SMBus_control == 0x01 ){
  1326   0019EA  EE20 F003          	lfsr	2,3
  1327   0019EE  506C               	movf	I2C_SMBus_Confg@i2c_obj^0,w,c
  1328   0019F0  26D9               	addwf	fsr2l,f,c
  1329   0019F2  506D               	movf	(I2C_SMBus_Confg@i2c_obj+1)^0,w,c
  1330   0019F4  22DA               	addwfc	fsr2h,f,c
  1331   0019F6  AADF               	btfss	indf2,5,c
  1332   0019F8  EF00  F00D         	goto	u3421
  1333   0019FC  EF02  F00D         	goto	u3420
  1334   001A00                     u3421:
  1335   001A00  EF07  F00D         	goto	l1212
  1336   001A04                     u3420:
  1337   001A04                     
  1338                           ;MCAL_layer/MSSP/I2C/MCAL_I2C.c: 148:              SSPSTATbits.CKE = 1;
  1339   001A04  8CC7               	bsf	199,6,c	;volatile
  1340   001A06                     l4946:
  1341                           
  1342                           ;MCAL_layer/MSSP/I2C/MCAL_I2C.c: 149:              ret = (Std_ReturnType)0x0;
  1343   001A06  0E00               	movlw	0
  1344   001A08  6E6E               	movwf	I2C_SMBus_Confg@ret^0,c
  1345                           
  1346                           ;MCAL_layer/MSSP/I2C/MCAL_I2C.c: 150:          }
  1347   001A0A  EF0A  F00D         	goto	l1211
  1348   001A0E                     l1212:
  1349                           
  1350                           ;MCAL_layer/MSSP/I2C/MCAL_I2C.c: 152:              SSPSTATbits.CKE = 0;
  1351   001A0E  9CC7               	bcf	199,6,c	;volatile
  1352   001A10  EF03  F00D         	goto	l4946
  1353   001A14                     l1211:
  1354                           
  1355                           ;MCAL_layer/MSSP/I2C/MCAL_I2C.c: 156:     return ret;
  1356   001A14  506E               	movf	I2C_SMBus_Confg@ret^0,w,c
  1357   001A16  0012               	return		;funcret
  1358   001A18                     __end_of_I2C_SMBus_Confg:
  1359                           	callstack 0
  1360                           
  1361 ;; *************** function _I2C_Mode_Configuration *****************
  1362 ;; Defined at:
  1363 ;;		line 227 in file "MCAL_layer/MSSP/I2C/MCAL_I2C.c"
  1364 ;; Parameters:    Size  Location     Type
  1365 ;;  i2c_obj         2    9[COMRAM] PTR const struct .
  1366 ;;		 -> I2C_obj(11), 
  1367 ;; Auto vars:     Size  Location     Type
  1368 ;;  ret             1   12[COMRAM] unsigned char 
  1369 ;; Return value:  Size  Location     Type
  1370 ;;                  1    wreg      unsigned char 
  1371 ;; Registers used:
  1372 ;;		wreg, fsr2l, fsr2h, status,2, status,0, cstack
  1373 ;; Tracked objects:
  1374 ;;		On entry : 0/0
  1375 ;;		On exit  : 0/0
  1376 ;;		Unchanged: 0/0
  1377 ;; Data sizes:     COMRAM   BANK0   BANK1   BANK2   BANK3   BANK4   BANK5   BANK6   BANK7   BANK8   BANK9  BANK10  BANK1
      +1  BANK12  BANK13  BANK14  BANK15
  1378 ;;      Params:         2       0       0       0       0       0       0       0       0       0       0       0       
      +0       0       0       0       0
  1379 ;;      Locals:         1       0       0       0       0       0       0       0       0       0       0       0       
      +0       0       0       0       0
  1380 ;;      Temps:          1       0       0       0       0       0       0       0       0       0       0       0       
      +0       0       0       0       0
  1381 ;;      Totals:         4       0       0       0       0       0       0       0       0       0       0       0       
      +0       0       0       0       0
  1382 ;;Total ram usage:        4 bytes
  1383 ;; Hardware stack levels used: 1
  1384 ;; Hardware stack levels required when called: 4
  1385 ;; This function calls:
  1386 ;;		_I2C_Master_Confg
  1387 ;;		_I2C_Slave_Confg
  1388 ;; This function is called by:
  1389 ;;		_MSSP_I2C_Initialize
  1390 ;; This function uses a non-reentrant model
  1391 ;;
  1392                           
  1393                           	psect	text6
  1394   001758                     __ptext6:
  1395                           	callstack 0
  1396   001758                     _I2C_Mode_Configuration:
  1397                           	callstack 24
  1398   001758                     
  1399                           ;MCAL_layer/MSSP/I2C/MCAL_I2C.c: 228:     Std_ReturnType ret = (Std_ReturnType)0x1;
  1400   001758  0E01               	movlw	1
  1401   00175A  6E76               	movwf	I2C_Mode_Configuration@ret^0,c
  1402   00175C                     
  1403                           ;MCAL_layer/MSSP/I2C/MCAL_I2C.c: 229:     if(i2c_obj == ((void*)0)){
  1404   00175C  5073               	movf	I2C_Mode_Configuration@i2c_obj^0,w,c
  1405   00175E  1074               	iorwf	(I2C_Mode_Configuration@i2c_obj+1)^0,w,c
  1406   001760  A4D8               	btfss	status,2,c
  1407   001762  EFB5  F00B         	goto	u3451
  1408   001766  EFB7  F00B         	goto	u3450
  1409   00176A                     u3451:
  1410   00176A  EFB9  F00B         	goto	l4974
  1411   00176E                     u3450:
  1412   00176E                     
  1413                           ;MCAL_layer/MSSP/I2C/MCAL_I2C.c: 231:     }
  1414   00176E  EFE7  F00B         	goto	l1255
  1415   001772                     l4974:
  1416                           
  1417                           ;MCAL_layer/MSSP/I2C/MCAL_I2C.c: 233:          SSPCON1bits.SSPM = i2c_obj->Operation_Mod
      +                          e;
  1418   001772  EE20 F003          	lfsr	2,3
  1419   001776  5073               	movf	I2C_Mode_Configuration@i2c_obj^0,w,c
  1420   001778  26D9               	addwf	fsr2l,f,c
  1421   00177A  5074               	movf	(I2C_Mode_Configuration@i2c_obj+1)^0,w,c
  1422   00177C  22DA               	addwfc	fsr2h,f,c
  1423   00177E  50DF               	movf	223,w,c
  1424   001780  0B0F               	andlw	15
  1425   001782  6E75               	movwf	??_I2C_Mode_Configuration^0,c
  1426   001784  50C6               	movf	198,w,c	;volatile
  1427   001786  1875               	xorwf	??_I2C_Mode_Configuration^0,w,c
  1428   001788  0BF0               	andlw	-16
  1429   00178A  1875               	xorwf	??_I2C_Mode_Configuration^0,w,c
  1430   00178C  6EC6               	movwf	198,c	;volatile
  1431                           
  1432                           ;MCAL_layer/MSSP/I2C/MCAL_I2C.c: 234:         if(i2c_obj->Operation_Mode == 0b1000){
  1433   00178E  EE20 F003          	lfsr	2,3
  1434   001792  5073               	movf	I2C_Mode_Configuration@i2c_obj^0,w,c
  1435   001794  26D9               	addwf	fsr2l,f,c
  1436   001796  5074               	movf	(I2C_Mode_Configuration@i2c_obj+1)^0,w,c
  1437   001798  22DA               	addwfc	fsr2h,f,c
  1438   00179A  50DF               	movf	223,w,c
  1439   00179C  0B0F               	andlw	15
  1440   00179E  0A08               	xorlw	8
  1441   0017A0  A4D8               	btfss	status,2,c
  1442   0017A2  EFD5  F00B         	goto	u3461
  1443   0017A6  EFD7  F00B         	goto	u3460
  1444   0017AA                     u3461:
  1445   0017AA  EFE0  F00B         	goto	l4978
  1446   0017AE                     u3460:
  1447   0017AE                     
  1448                           ;MCAL_layer/MSSP/I2C/MCAL_I2C.c: 235:            ret |= I2C_Master_Confg(i2c_obj);
  1449   0017AE  C073  F06C         	movff	I2C_Mode_Configuration@i2c_obj,I2C_Master_Confg@i2c_obj
  1450   0017B2  C074  F06D         	movff	I2C_Mode_Configuration@i2c_obj+1,I2C_Master_Confg@i2c_obj+1
  1451   0017B6  EC65  F00B         	call	_I2C_Master_Confg	;wreg free
  1452   0017BA  1276               	iorwf	I2C_Mode_Configuration@ret^0,f,c
  1453                           
  1454                           ;MCAL_layer/MSSP/I2C/MCAL_I2C.c: 236:         }
  1455   0017BC  EFE7  F00B         	goto	l1255
  1456   0017C0                     l4978:
  1457                           
  1458                           ;MCAL_layer/MSSP/I2C/MCAL_I2C.c: 238:             ret |= I2C_Slave_Confg(i2c_obj);
  1459   0017C0  C073  F06C         	movff	I2C_Mode_Configuration@i2c_obj,I2C_Slave_Confg@i2c_obj
  1460   0017C4  C074  F06D         	movff	I2C_Mode_Configuration@i2c_obj+1,I2C_Slave_Confg@i2c_obj+1
  1461   0017C8  EC96  F00A         	call	_I2C_Slave_Confg	;wreg free
  1462   0017CC  1276               	iorwf	I2C_Mode_Configuration@ret^0,f,c
  1463   0017CE                     l1255:
  1464   0017CE  0012               	return		;funcret
  1465   0017D0                     __end_of_I2C_Mode_Configuration:
  1466                           	callstack 0
  1467                           
  1468 ;; *************** function _I2C_Slave_Confg *****************
  1469 ;; Defined at:
  1470 ;;		line 196 in file "MCAL_layer/MSSP/I2C/MCAL_I2C.c"
  1471 ;; Parameters:    Size  Location     Type
  1472 ;;  i2c_obj         2    2[COMRAM] PTR const struct .
  1473 ;;		 -> I2C_obj(11), 
  1474 ;; Auto vars:     Size  Location     Type
  1475 ;;  address_byte    2    7[COMRAM] unsigned short 
  1476 ;;  ret             1    0        unsigned char 
  1477 ;; Return value:  Size  Location     Type
  1478 ;;                  1    wreg      unsigned char 
  1479 ;; Registers used:
  1480 ;;		wreg, fsr2l, fsr2h, status,2, status,0
  1481 ;; Tracked objects:
  1482 ;;		On entry : 0/0
  1483 ;;		On exit  : 0/0
  1484 ;;		Unchanged: 0/0
  1485 ;; Data sizes:     COMRAM   BANK0   BANK1   BANK2   BANK3   BANK4   BANK5   BANK6   BANK7   BANK8   BANK9  BANK10  BANK1
      +1  BANK12  BANK13  BANK14  BANK15
  1486 ;;      Params:         2       0       0       0       0       0       0       0       0       0       0       0       
      +0       0       0       0       0
  1487 ;;      Locals:         2       0       0       0       0       0       0       0       0       0       0       0       
      +0       0       0       0       0
  1488 ;;      Temps:          3       0       0       0       0       0       0       0       0       0       0       0       
      +0       0       0       0       0
  1489 ;;      Totals:         7       0       0       0       0       0       0       0       0       0       0       0       
      +0       0       0       0       0
  1490 ;;Total ram usage:        7 bytes
  1491 ;; Hardware stack levels used: 1
  1492 ;; Hardware stack levels required when called: 3
  1493 ;; This function calls:
  1494 ;;		Nothing
  1495 ;; This function is called by:
  1496 ;;		_I2C_Mode_Configuration
  1497 ;; This function uses a non-reentrant model
  1498 ;;
  1499                           
  1500                           	psect	text7
  1501   00152C                     __ptext7:
  1502                           	callstack 0
  1503   00152C                     _I2C_Slave_Confg:
  1504                           	callstack 24
  1505   00152C                     
  1506                           ;MCAL_layer/MSSP/I2C/MCAL_I2C.c: 198:     if(i2c_obj == ((void*)0)){
  1507   00152C  506C               	movf	I2C_Slave_Confg@i2c_obj^0,w,c
  1508   00152E  106D               	iorwf	(I2C_Slave_Confg@i2c_obj+1)^0,w,c
  1509   001530  A4D8               	btfss	status,2,c
  1510   001532  EF9D  F00A         	goto	u3271
  1511   001536  EF9F  F00A         	goto	u3270
  1512   00153A                     u3271:
  1513   00153A  EFA1  F00A         	goto	l4880
  1514   00153E                     u3270:
  1515   00153E                     
  1516                           ;MCAL_layer/MSSP/I2C/MCAL_I2C.c: 200:     }
  1517   00153E  EF0C  F00B         	goto	l4892
  1518   001542                     l4880:
  1519                           
  1520                           ;MCAL_layer/MSSP/I2C/MCAL_I2C.c: 202:         uint16 address_bytes;;MCAL_layer/MSSP/I2C/
      +                          MCAL_I2C.c: 203:         if(i2c_obj->Operation_Mode == 0b1111||
  1521   001542  EE20 F003          	lfsr	2,3
  1522   001546  506C               	movf	I2C_Slave_Confg@i2c_obj^0,w,c
  1523   001548  26D9               	addwf	fsr2l,f,c
  1524   00154A  506D               	movf	(I2C_Slave_Confg@i2c_obj+1)^0,w,c
  1525   00154C  22DA               	addwfc	fsr2h,f,c
  1526   00154E  50DF               	movf	223,w,c
  1527   001550  0B0F               	andlw	15
  1528   001552  0A0F               	xorlw	15
  1529   001554  B4D8               	btfsc	status,2,c
  1530   001556  EFAF  F00A         	goto	u3281
  1531   00155A  EFB1  F00A         	goto	u3280
  1532   00155E                     u3281:
  1533   00155E  EFC1  F00A         	goto	l4884
  1534   001562                     u3280:
  1535   001562  EE20 F003          	lfsr	2,3
  1536   001566  506C               	movf	I2C_Slave_Confg@i2c_obj^0,w,c
  1537   001568  26D9               	addwf	fsr2l,f,c
  1538   00156A  506D               	movf	(I2C_Slave_Confg@i2c_obj+1)^0,w,c
  1539   00156C  22DA               	addwfc	fsr2h,f,c
  1540   00156E  50DF               	movf	223,w,c
  1541   001570  0B0F               	andlw	15
  1542   001572  0A07               	xorlw	7
  1543   001574  A4D8               	btfss	status,2,c
  1544   001576  EFBF  F00A         	goto	u3291
  1545   00157A  EFC1  F00A         	goto	u3290
  1546   00157E                     u3291:
  1547   00157E  EFF3  F00A         	goto	l4888
  1548   001582                     u3290:
  1549   001582                     l4884:
  1550                           
  1551                           ;MCAL_layer/MSSP/I2C/MCAL_I2C.c: 204:            i2c_obj->Operation_Mode == 0b0111 ){;MC
      +                          AL_layer/MSSP/I2C/MCAL_I2C.c: 205:              address_bytes = 0x3FF & i2c_obj->slave_o
      +                          bj.Slave_Address ;
  1552   001582  EE20 F004          	lfsr	2,4
  1553   001586  506C               	movf	I2C_Slave_Confg@i2c_obj^0,w,c
  1554   001588  26D9               	addwf	fsr2l,f,c
  1555   00158A  506D               	movf	(I2C_Slave_Confg@i2c_obj+1)^0,w,c
  1556   00158C  22DA               	addwfc	fsr2h,f,c
  1557   00158E  CFDE F06E          	movff	postinc2,??_I2C_Slave_Confg
  1558   001592  CFDD F06F          	movff	postdec2,??_I2C_Slave_Confg+1
  1559   001596  0EFF               	movlw	255
  1560   001598  146E               	andwf	??_I2C_Slave_Confg^0,w,c
  1561   00159A  6E71               	movwf	I2C_Slave_Confg@address_bytes^0,c
  1562   00159C  0E03               	movlw	3
  1563   00159E  146F               	andwf	(??_I2C_Slave_Confg+1)^0,w,c
  1564   0015A0  6E72               	movwf	(I2C_Slave_Confg@address_bytes+1)^0,c
  1565   0015A2                     
  1566                           ;MCAL_layer/MSSP/I2C/MCAL_I2C.c: 206:              SSPADD = (uint8)(0xF0 | ((address_byt
      +                          es >> 7)&0x06));
  1567   0015A2  C071  F06E         	movff	I2C_Slave_Confg@address_bytes,??_I2C_Slave_Confg
  1568   0015A6  C072  F06F         	movff	I2C_Slave_Confg@address_bytes+1,??_I2C_Slave_Confg+1
  1569   0015AA  0E07               	movlw	7
  1570   0015AC  6E70               	movwf	(??_I2C_Slave_Confg+2)^0,c
  1571   0015AE                     u3305:
  1572   0015AE  90D8               	bcf	status,0,c
  1573   0015B0  326F               	rrcf	(??_I2C_Slave_Confg+1)^0,f,c
  1574   0015B2  326E               	rrcf	??_I2C_Slave_Confg^0,f,c
  1575   0015B4  2E70               	decfsz	(??_I2C_Slave_Confg+2)^0,f,c
  1576   0015B6  EFD7  F00A         	goto	u3305
  1577   0015BA  506E               	movf	??_I2C_Slave_Confg^0,w,c
  1578   0015BC  0B06               	andlw	6
  1579   0015BE  09F0               	iorlw	240
  1580   0015C0  6EC8               	movwf	200,c	;volatile
  1581   0015C2                     l1239:
  1582   0015C2  A2C7               	btfss	199,1,c	;volatile
  1583   0015C4  EFE6  F00A         	goto	u3311
  1584   0015C8  EFE8  F00A         	goto	u3310
  1585   0015CC                     u3311:
  1586   0015CC  EFE1  F00A         	goto	l1239
  1587   0015D0                     u3310:
  1588   0015D0                     
  1589                           ;MCAL_layer/MSSP/I2C/MCAL_I2C.c: 208:              SSPADD = (uint8) (address_bytes & 0xF
      +                          F);
  1590   0015D0  C071  FFC8         	movff	I2C_Slave_Confg@address_bytes,4040	;volatile
  1591   0015D4                     l1242:
  1592   0015D4  A0C7               	btfss	199,0,c	;volatile
  1593   0015D6  EFEF  F00A         	goto	u3321
  1594   0015DA  EFF1  F00A         	goto	u3320
  1595   0015DE                     u3321:
  1596   0015DE  EFEA  F00A         	goto	l1242
  1597   0015E2                     u3320:
  1598   0015E2  EFFB  F00A         	goto	l1245
  1599   0015E6                     l4888:
  1600                           
  1601                           ;MCAL_layer/MSSP/I2C/MCAL_I2C.c: 212:             SSPADD = (uint8)(i2c_obj->slave_obj.Sl
      +                          ave_Address) ;
  1602   0015E6  EE20 F004          	lfsr	2,4
  1603   0015EA  506C               	movf	I2C_Slave_Confg@i2c_obj^0,w,c
  1604   0015EC  26D9               	addwf	fsr2l,f,c
  1605   0015EE  506D               	movf	(I2C_Slave_Confg@i2c_obj+1)^0,w,c
  1606   0015F0  22DA               	addwfc	fsr2h,f,c
  1607   0015F2  50DF               	movf	indf2,w,c
  1608   0015F4  6EC8               	movwf	200,c	;volatile
  1609   0015F6                     l1245:
  1610                           
  1611                           ;MCAL_layer/MSSP/I2C/MCAL_I2C.c: 215:         if(i2c_obj->slave_obj.i2c_General_Call == 
      +                          0x01){
  1612   0015F6  EE20 F006          	lfsr	2,6
  1613   0015FA  506C               	movf	I2C_Slave_Confg@i2c_obj^0,w,c
  1614   0015FC  26D9               	addwf	fsr2l,f,c
  1615   0015FE  506D               	movf	(I2C_Slave_Confg@i2c_obj+1)^0,w,c
  1616   001600  22DA               	addwfc	fsr2h,f,c
  1617   001602  A0DF               	btfss	indf2,0,c
  1618   001604  EF06  F00B         	goto	u3331
  1619   001608  EF08  F00B         	goto	u3330
  1620   00160C                     u3331:
  1621   00160C  EF0B  F00B         	goto	l1246
  1622   001610                     u3330:
  1623   001610                     
  1624                           ;MCAL_layer/MSSP/I2C/MCAL_I2C.c: 216:             SSPCON2bits.GCEN = 1;
  1625   001610  8EC5               	bsf	197,7,c	;volatile
  1626                           
  1627                           ;MCAL_layer/MSSP/I2C/MCAL_I2C.c: 217:         }
  1628   001612  EF0C  F00B         	goto	l4892
  1629   001616                     l1246:
  1630                           
  1631                           ;MCAL_layer/MSSP/I2C/MCAL_I2C.c: 219:          SSPCON2bits.GCEN = 0;
  1632   001616  9EC5               	bcf	197,7,c	;volatile
  1633   001618                     l4892:
  1634                           
  1635                           ;MCAL_layer/MSSP/I2C/MCAL_I2C.c: 224:     return ret;
  1636   001618  0E01               	movlw	1
  1637   00161A  0012               	return		;funcret
  1638   00161C                     __end_of_I2C_Slave_Confg:
  1639                           	callstack 0
  1640                           
  1641 ;; *************** function _I2C_Master_Confg *****************
  1642 ;; Defined at:
  1643 ;;		line 176 in file "MCAL_layer/MSSP/I2C/MCAL_I2C.c"
  1644 ;; Parameters:    Size  Location     Type
  1645 ;;  i2c_obj         2    2[COMRAM] PTR const struct .
  1646 ;;		 -> I2C_obj(11), 
  1647 ;; Auto vars:     Size  Location     Type
  1648 ;;  ret             1    5[COMRAM] unsigned char 
  1649 ;; Return value:  Size  Location     Type
  1650 ;;                  1    wreg      unsigned char 
  1651 ;; Registers used:
  1652 ;;		wreg, fsr2l, fsr2h, status,2, status,0
  1653 ;; Tracked objects:
  1654 ;;		On entry : 0/0
  1655 ;;		On exit  : 0/0
  1656 ;;		Unchanged: 0/0
  1657 ;; Data sizes:     COMRAM   BANK0   BANK1   BANK2   BANK3   BANK4   BANK5   BANK6   BANK7   BANK8   BANK9  BANK10  BANK1
      +1  BANK12  BANK13  BANK14  BANK15
  1658 ;;      Params:         2       0       0       0       0       0       0       0       0       0       0       0       
      +0       0       0       0       0
  1659 ;;      Locals:         1       0       0       0       0       0       0       0       0       0       0       0       
      +0       0       0       0       0
  1660 ;;      Temps:          1       0       0       0       0       0       0       0       0       0       0       0       
      +0       0       0       0       0
  1661 ;;      Totals:         4       0       0       0       0       0       0       0       0       0       0       0       
      +0       0       0       0       0
  1662 ;;Total ram usage:        4 bytes
  1663 ;; Hardware stack levels used: 1
  1664 ;; Hardware stack levels required when called: 3
  1665 ;; This function calls:
  1666 ;;		Nothing
  1667 ;; This function is called by:
  1668 ;;		_I2C_Mode_Configuration
  1669 ;; This function uses a non-reentrant model
  1670 ;;
  1671                           
  1672                           	psect	text8
  1673   0016CA                     __ptext8:
  1674                           	callstack 0
  1675   0016CA                     _I2C_Master_Confg:
  1676                           	callstack 24
  1677   0016CA                     
  1678                           ;MCAL_layer/MSSP/I2C/MCAL_I2C.c: 177:      Std_ReturnType ret = (Std_ReturnType)0x1;
  1679   0016CA  0E01               	movlw	1
  1680   0016CC  6E6F               	movwf	I2C_Master_Confg@ret^0,c
  1681   0016CE                     
  1682                           ;MCAL_layer/MSSP/I2C/MCAL_I2C.c: 178:     if(i2c_obj == ((void*)0) || i2c_obj->Operation
      +                          _Mode != 0b1000){
  1683   0016CE  506C               	movf	I2C_Master_Confg@i2c_obj^0,w,c
  1684   0016D0  106D               	iorwf	(I2C_Master_Confg@i2c_obj+1)^0,w,c
  1685   0016D2  B4D8               	btfsc	status,2,c
  1686   0016D4  EF6E  F00B         	goto	u3231
  1687   0016D8  EF70  F00B         	goto	u3230
  1688   0016DC                     u3231:
  1689   0016DC  EF80  F00B         	goto	l4862
  1690   0016E0                     u3230:
  1691   0016E0  EE20 F003          	lfsr	2,3
  1692   0016E4  506C               	movf	I2C_Master_Confg@i2c_obj^0,w,c
  1693   0016E6  26D9               	addwf	fsr2l,f,c
  1694   0016E8  506D               	movf	(I2C_Master_Confg@i2c_obj+1)^0,w,c
  1695   0016EA  22DA               	addwfc	fsr2h,f,c
  1696   0016EC  50DF               	movf	223,w,c
  1697   0016EE  0B0F               	andlw	15
  1698   0016F0  0A08               	xorlw	8
  1699   0016F2  B4D8               	btfsc	status,2,c
  1700   0016F4  EF7E  F00B         	goto	u3241
  1701   0016F8  EF80  F00B         	goto	u3240
  1702   0016FC                     u3241:
  1703   0016FC  EF84  F00B         	goto	l4864
  1704   001700                     u3240:
  1705   001700                     l4862:
  1706                           
  1707                           ;MCAL_layer/MSSP/I2C/MCAL_I2C.c: 179:         ret = (Std_ReturnType)0x1;
  1708   001700  0E01               	movlw	1
  1709   001702  6E6F               	movwf	I2C_Master_Confg@ret^0,c
  1710                           
  1711                           ;MCAL_layer/MSSP/I2C/MCAL_I2C.c: 180:     }
  1712   001704  EFAA  F00B         	goto	l1227
  1713   001708                     l4864:
  1714                           
  1715                           ;MCAL_layer/MSSP/I2C/MCAL_I2C.c: 182:        if((i2c_obj->master_obj).Speed_mode == 0x01
      +                          ){
  1716   001708  EE20 F00A          	lfsr	2,10
  1717   00170C  506C               	movf	I2C_Master_Confg@i2c_obj^0,w,c
  1718   00170E  26D9               	addwf	fsr2l,f,c
  1719   001710  506D               	movf	(I2C_Master_Confg@i2c_obj+1)^0,w,c
  1720   001712  22DA               	addwfc	fsr2h,f,c
  1721   001714  04DE               	decf	postinc2,w,c
  1722   001716  A4D8               	btfss	status,2,c
  1723   001718  EF90  F00B         	goto	u3251
  1724   00171C  EF92  F00B         	goto	u3250
  1725   001720                     u3251:
  1726   001720  EF98  F00B         	goto	l4868
  1727   001724                     u3250:
  1728   001724                     
  1729                           ;MCAL_layer/MSSP/I2C/MCAL_I2C.c: 183:             SSPADD = (4000000UL / (4 * 400000))-1;
  1730   001724  0E01               	movlw	1
  1731   001726  6EC8               	movwf	200,c	;volatile
  1732                           
  1733                           ;MCAL_layer/MSSP/I2C/MCAL_I2C.c: 184:             ret = (Std_ReturnType)0x0;
  1734   001728  0E00               	movlw	0
  1735   00172A  6E6F               	movwf	I2C_Master_Confg@ret^0,c
  1736                           
  1737                           ;MCAL_layer/MSSP/I2C/MCAL_I2C.c: 186:         }
  1738   00172C  EFAA  F00B         	goto	l1227
  1739   001730                     l4868:
  1740   001730  EE20 F00A          	lfsr	2,10
  1741   001734  506C               	movf	I2C_Master_Confg@i2c_obj^0,w,c
  1742   001736  26D9               	addwf	fsr2l,f,c
  1743   001738  506D               	movf	(I2C_Master_Confg@i2c_obj+1)^0,w,c
  1744   00173A  22DA               	addwfc	fsr2h,f,c
  1745   00173C  50DF               	movf	indf2,w,c
  1746   00173E  A4D8               	btfss	status,2,c
  1747   001740  EFA4  F00B         	goto	u3261
  1748   001744  EFA6  F00B         	goto	u3260
  1749   001748                     u3261:
  1750   001748  EFAA  F00B         	goto	l1227
  1751   00174C                     u3260:
  1752   00174C                     
  1753                           ;MCAL_layer/MSSP/I2C/MCAL_I2C.c: 188:             SSPADD = (4000000UL / (4 * 100000))-1;
  1754   00174C  0E09               	movlw	9
  1755   00174E  6EC8               	movwf	200,c	;volatile
  1756                           
  1757                           ;MCAL_layer/MSSP/I2C/MCAL_I2C.c: 189:             ret = (Std_ReturnType)0x0;
  1758   001750  0E00               	movlw	0
  1759   001752  6E6F               	movwf	I2C_Master_Confg@ret^0,c
  1760   001754                     l1227:
  1761                           
  1762                           ;MCAL_layer/MSSP/I2C/MCAL_I2C.c: 193:     return ret;
  1763   001754  506F               	movf	I2C_Master_Confg@ret^0,w,c
  1764   001756  0012               	return		;funcret
  1765   001758                     __end_of_I2C_Master_Confg:
  1766                           	callstack 0
  1767                           
  1768 ;; *************** function _I2C_Interrupt_Cnfg *****************
  1769 ;; Defined at:
  1770 ;;		line 249 in file "MCAL_layer/MSSP/I2C/MCAL_I2C.c"
  1771 ;; Parameters:    Size  Location     Type
  1772 ;;  i2c_obj         2    2[COMRAM] PTR const struct .
  1773 ;;		 -> I2C_obj(11), 
  1774 ;; Auto vars:     Size  Location     Type
  1775 ;;  ret             1    4[COMRAM] unsigned char 
  1776 ;; Return value:  Size  Location     Type
  1777 ;;                  1    wreg      unsigned char 
  1778 ;; Registers used:
  1779 ;;		wreg, fsr2l, fsr2h, status,2, status,0
  1780 ;; Tracked objects:
  1781 ;;		On entry : 0/0
  1782 ;;		On exit  : 0/0
  1783 ;;		Unchanged: 0/0
  1784 ;; Data sizes:     COMRAM   BANK0   BANK1   BANK2   BANK3   BANK4   BANK5   BANK6   BANK7   BANK8   BANK9  BANK10  BANK1
      +1  BANK12  BANK13  BANK14  BANK15
  1785 ;;      Params:         2       0       0       0       0       0       0       0       0       0       0       0       
      +0       0       0       0       0
  1786 ;;      Locals:         1       0       0       0       0       0       0       0       0       0       0       0       
      +0       0       0       0       0
  1787 ;;      Temps:          0       0       0       0       0       0       0       0       0       0       0       0       
      +0       0       0       0       0
  1788 ;;      Totals:         3       0       0       0       0       0       0       0       0       0       0       0       
      +0       0       0       0       0
  1789 ;;Total ram usage:        3 bytes
  1790 ;; Hardware stack levels used: 1
  1791 ;; Hardware stack levels required when called: 3
  1792 ;; This function calls:
  1793 ;;		Nothing
  1794 ;; This function is called by:
  1795 ;;		_MSSP_I2C_Initialize
  1796 ;; This function uses a non-reentrant model
  1797 ;;
  1798                           
  1799                           	psect	text9
  1800   0018EE                     __ptext9:
  1801                           	callstack 0
  1802   0018EE                     _I2C_Interrupt_Cnfg:
  1803                           	callstack 25
  1804   0018EE                     
  1805                           ;MCAL_layer/MSSP/I2C/MCAL_I2C.c: 251:     if(i2c_obj == ((void*)0)){
  1806   0018EE  506C               	movf	I2C_Interrupt_Cnfg@i2c_obj^0,w,c
  1807   0018F0  106D               	iorwf	(I2C_Interrupt_Cnfg@i2c_obj+1)^0,w,c
  1808   0018F2  A4D8               	btfss	status,2,c
  1809   0018F4  EF7E  F00C         	goto	u3401
  1810   0018F8  EF80  F00C         	goto	u3400
  1811   0018FC                     u3401:
  1812   0018FC  EF84  F00C         	goto	l1258
  1813   001900                     u3400:
  1814   001900                     
  1815                           ;MCAL_layer/MSSP/I2C/MCAL_I2C.c: 252:         ret = (Std_ReturnType)0x1;
  1816   001900  0E01               	movlw	1
  1817   001902  6E6E               	movwf	I2C_Interrupt_Cnfg@ret^0,c
  1818                           
  1819                           ;MCAL_layer/MSSP/I2C/MCAL_I2C.c: 253:     }
  1820   001904  EF9D  F00C         	goto	l4932
  1821   001908                     l1258:
  1822                           
  1823                           ;MCAL_layer/MSSP/I2C/MCAL_I2C.c: 277:     INTCONbits.GIE = 1;
  1824   001908  8EF2               	bsf	242,7,c	;volatile
  1825                           
  1826                           ;MCAL_layer/MSSP/I2C/MCAL_I2C.c: 278:     INTCONbits.PEIE = 1;
  1827   00190A  8CF2               	bsf	242,6,c	;volatile
  1828                           
  1829                           ;MCAL_layer/MSSP/I2C/MCAL_I2C.c: 281:     PIR1bits.SSPIF = 0;
  1830   00190C  969E               	bcf	158,3,c	;volatile
  1831                           
  1832                           ;MCAL_layer/MSSP/I2C/MCAL_I2C.c: 282:     PIE1bits.SSPIE = 1;
  1833   00190E  869D               	bsf	157,3,c	;volatile
  1834                           
  1835                           ;MCAL_layer/MSSP/I2C/MCAL_I2C.c: 283:     PIE2bits.BCLIE = 1;
  1836   001910  86A0               	bsf	160,3,c	;volatile
  1837   001912                     
  1838                           ;MCAL_layer/MSSP/I2C/MCAL_I2C.c: 284:     I2C_default_Interrupt_handler = i2c_obj->I2C_D
      +                          efault_Handler;
  1839   001912  C06C  FFD9         	movff	I2C_Interrupt_Cnfg@i2c_obj,fsr2l
  1840   001916  C06D  FFDA         	movff	I2C_Interrupt_Cnfg@i2c_obj+1,fsr2h
  1841   00191A  CFDE F01A          	movff	postinc2,_I2C_default_Interrupt_handler
  1842   00191E  CFDD F01B          	movff	postdec2,_I2C_default_Interrupt_handler+1
  1843   001922                     
  1844                           ;MCAL_layer/MSSP/I2C/MCAL_I2C.c: 285:     I2C_Bus_Col_Interrupt_handler = i2c_obj->maste
      +                          r_obj.Bus_Col_Handler;
  1845   001922  EE20 F007          	lfsr	2,7
  1846   001926  506C               	movf	I2C_Interrupt_Cnfg@i2c_obj^0,w,c
  1847   001928  26D9               	addwf	fsr2l,f,c
  1848   00192A  506D               	movf	(I2C_Interrupt_Cnfg@i2c_obj+1)^0,w,c
  1849   00192C  22DA               	addwfc	fsr2h,f,c
  1850   00192E  CFDE F018          	movff	postinc2,_I2C_Bus_Col_Interrupt_handler
  1851   001932  CFDD F019          	movff	postdec2,_I2C_Bus_Col_Interrupt_handler+1
  1852   001936                     
  1853                           ;MCAL_layer/MSSP/I2C/MCAL_I2C.c: 287:     ret = (Std_ReturnType)0x0;
  1854   001936  0E00               	movlw	0
  1855   001938  6E6E               	movwf	I2C_Interrupt_Cnfg@ret^0,c
  1856   00193A                     l4932:
  1857                           
  1858                           ;MCAL_layer/MSSP/I2C/MCAL_I2C.c: 289:     return ret;
  1859   00193A  506E               	movf	I2C_Interrupt_Cnfg@ret^0,w,c
  1860   00193C  0012               	return		;funcret
  1861   00193E                     __end_of_I2C_Interrupt_Cnfg:
  1862                           	callstack 0
  1863                           
  1864 ;; *************** function _MSSP_I2C_Transmit_Byte *****************
  1865 ;; Defined at:
  1866 ;;		line 112 in file "MCAL_layer/MSSP/I2C/MCAL_I2C.c"
  1867 ;; Parameters:    Size  Location     Type
  1868 ;;  i2c_obj         2    2[COMRAM] PTR const struct .
  1869 ;;		 -> I2C_obj(11), 
  1870 ;;  data            1    4[COMRAM] unsigned char 
  1871 ;;  ack             2    5[COMRAM] PTR unsigned char 
  1872 ;;		 -> ack(1), 
  1873 ;; Auto vars:     Size  Location     Type
  1874 ;;  ret             1    0        unsigned char 
  1875 ;; Return value:  Size  Location     Type
  1876 ;;                  1    wreg      unsigned char 
  1877 ;; Registers used:
  1878 ;;		wreg, fsr2l, fsr2h, status,2, status,0
  1879 ;; Tracked objects:
  1880 ;;		On entry : 0/0
  1881 ;;		On exit  : 0/0
  1882 ;;		Unchanged: 0/0
  1883 ;; Data sizes:     COMRAM   BANK0   BANK1   BANK2   BANK3   BANK4   BANK5   BANK6   BANK7   BANK8   BANK9  BANK10  BANK1
      +1  BANK12  BANK13  BANK14  BANK15
  1884 ;;      Params:         5       0       0       0       0       0       0       0       0       0       0       0       
      +0       0       0       0       0
  1885 ;;      Locals:         0       0       0       0       0       0       0       0       0       0       0       0       
      +0       0       0       0       0
  1886 ;;      Temps:          1       0       0       0       0       0       0       0       0       0       0       0       
      +0       0       0       0       0
  1887 ;;      Totals:         6       0       0       0       0       0       0       0       0       0       0       0       
      +0       0       0       0       0
  1888 ;;Total ram usage:        6 bytes
  1889 ;; Hardware stack levels used: 1
  1890 ;; Hardware stack levels required when called: 3
  1891 ;; This function calls:
  1892 ;;		Nothing
  1893 ;; This function is called by:
  1894 ;;		_main
  1895 ;; This function uses a non-reentrant model
  1896 ;;
  1897                           
  1898                           	psect	text10
  1899   00193E                     __ptext10:
  1900                           	callstack 0
  1901   00193E                     _MSSP_I2C_Transmit_Byte:
  1902                           	callstack 27
  1903   00193E                     
  1904                           ;MCAL_layer/MSSP/I2C/MCAL_I2C.c: 114:     if(i2c_obj == ((void*)0)){
  1905   00193E  506C               	movf	MSSP_I2C_Transmit_Byte@i2c_obj^0,w,c
  1906   001940  106D               	iorwf	(MSSP_I2C_Transmit_Byte@i2c_obj+1)^0,w,c
  1907   001942  A4D8               	btfss	status,2,c
  1908   001944  EFA6  F00C         	goto	u3691
  1909   001948  EFA8  F00C         	goto	u3690
  1910   00194C                     u3691:
  1911   00194C  EFAA  F00C         	goto	l1194
  1912   001950                     u3690:
  1913   001950                     
  1914                           ;MCAL_layer/MSSP/I2C/MCAL_I2C.c: 116:     }
  1915   001950  EFC3  F00C         	goto	l1199
  1916   001954                     l1194:
  1917                           
  1918                           ;MCAL_layer/MSSP/I2C/MCAL_I2C.c: 118:         SSPBUF = data;
  1919   001954  C06E  FFC9         	movff	MSSP_I2C_Transmit_Byte@data,4041	;volatile
  1920   001958                     l1196:
  1921   001958  B0C7               	btfsc	199,0,c	;volatile
  1922   00195A  EFB1  F00C         	goto	u3701
  1923   00195E  EFB3  F00C         	goto	u3700
  1924   001962                     u3701:
  1925   001962  EFAC  F00C         	goto	l1196
  1926   001966                     u3700:
  1927   001966                     
  1928                           ;MCAL_layer/MSSP/I2C/MCAL_I2C.c: 120:         *ack |= SSPCON2bits.ACKSTAT;
  1929   001966  BCC5               	btfsc	197,6,c	;volatile
  1930   001968  EFB8  F00C         	goto	u3711
  1931   00196C  EFBC  F00C         	goto	u3710
  1932   001970                     u3711:
  1933   001970  6A71               	clrf	??_MSSP_I2C_Transmit_Byte^0,c
  1934   001972  2A71               	incf	??_MSSP_I2C_Transmit_Byte^0,f,c
  1935   001974  EFBD  F00C         	goto	u3718
  1936   001978                     u3710:
  1937   001978  6A71               	clrf	??_MSSP_I2C_Transmit_Byte^0,c
  1938   00197A                     u3718:
  1939   00197A  C06F  FFD9         	movff	MSSP_I2C_Transmit_Byte@ack,fsr2l
  1940   00197E  C070  FFDA         	movff	MSSP_I2C_Transmit_Byte@ack+1,fsr2h
  1941   001982  5071               	movf	??_MSSP_I2C_Transmit_Byte^0,w,c
  1942   001984  12DF               	iorwf	indf2,f,c
  1943   001986                     l1199:
  1944   001986  0012               	return		;funcret
  1945   001988                     __end_of_MSSP_I2C_Transmit_Byte:
  1946                           	callstack 0
  1947                           
  1948 ;; *************** function _MSSP_I2C_Send_Stop_Condition *****************
  1949 ;; Defined at:
  1950 ;;		line 96 in file "MCAL_layer/MSSP/I2C/MCAL_I2C.c"
  1951 ;; Parameters:    Size  Location     Type
  1952 ;;  i2c_obj         2    2[COMRAM] PTR const struct .
  1953 ;;		 -> I2C_obj(11), 
  1954 ;; Auto vars:     Size  Location     Type
  1955 ;;  ret             1    0        unsigned char 
  1956 ;; Return value:  Size  Location     Type
  1957 ;;                  1    wreg      unsigned char 
  1958 ;; Registers used:
  1959 ;;		wreg, status,2, status,0
  1960 ;; Tracked objects:
  1961 ;;		On entry : 0/0
  1962 ;;		On exit  : 0/0
  1963 ;;		Unchanged: 0/0
  1964 ;; Data sizes:     COMRAM   BANK0   BANK1   BANK2   BANK3   BANK4   BANK5   BANK6   BANK7   BANK8   BANK9  BANK10  BANK1
      +1  BANK12  BANK13  BANK14  BANK15
  1965 ;;      Params:         2       0       0       0       0       0       0       0       0       0       0       0       
      +0       0       0       0       0
  1966 ;;      Locals:         0       0       0       0       0       0       0       0       0       0       0       0       
      +0       0       0       0       0
  1967 ;;      Temps:          0       0       0       0       0       0       0       0       0       0       0       0       
      +0       0       0       0       0
  1968 ;;      Totals:         2       0       0       0       0       0       0       0       0       0       0       0       
      +0       0       0       0       0
  1969 ;;Total ram usage:        2 bytes
  1970 ;; Hardware stack levels used: 1
  1971 ;; Hardware stack levels required when called: 3
  1972 ;; This function calls:
  1973 ;;		Nothing
  1974 ;; This function is called by:
  1975 ;;		_main
  1976 ;; This function uses a non-reentrant model
  1977 ;;
  1978                           
  1979                           	psect	text11
  1980   001A18                     __ptext11:
  1981                           	callstack 0
  1982   001A18                     _MSSP_I2C_Send_Stop_Condition:
  1983                           	callstack 27
  1984   001A18                     
  1985                           ;MCAL_layer/MSSP/I2C/MCAL_I2C.c: 98:     if(i2c_obj == ((void*)0) ){
  1986   001A18  506C               	movf	MSSP_I2C_Send_Stop_Condition@i2c_obj^0,w,c
  1987   001A1A  106D               	iorwf	(MSSP_I2C_Send_Stop_Condition@i2c_obj+1)^0,w,c
  1988   001A1C  A4D8               	btfss	status,2,c
  1989   001A1E  EF13  F00D         	goto	u3671
  1990   001A22  EF15  F00D         	goto	u3670
  1991   001A26                     u3671:
  1992   001A26  EF17  F00D         	goto	l1185
  1993   001A2A                     u3670:
  1994   001A2A                     
  1995                           ;MCAL_layer/MSSP/I2C/MCAL_I2C.c: 100:     }
  1996   001A2A  EF21  F00D         	goto	l1191
  1997   001A2E                     l1185:
  1998                           
  1999                           ;MCAL_layer/MSSP/I2C/MCAL_I2C.c: 102:         SSPCON2bits.PEN = 1;
  2000   001A2E  84C5               	bsf	197,2,c	;volatile
  2001   001A30                     l1187:
  2002   001A30  B4C5               	btfsc	197,2,c	;volatile
  2003   001A32  EF1D  F00D         	goto	u3681
  2004   001A36  EF1F  F00D         	goto	u3680
  2005   001A3A                     u3681:
  2006   001A3A  EF18  F00D         	goto	l1187
  2007   001A3E                     u3680:
  2008   001A3E                     
  2009                           ;MCAL_layer/MSSP/I2C/MCAL_I2C.c: 104:         PIR1bits.SSPIF = 0;
  2010   001A3E  969E               	bcf	158,3,c	;volatile
  2011                           
  2012                           ;MCAL_layer/MSSP/I2C/MCAL_I2C.c: 105:         if(SSPSTATbits.P == 0x01){
  2013   001A40  50C7               	movf	199,w,c	;volatile
  2014   001A42                     l1191:
  2015   001A42  0012               	return		;funcret
  2016   001A44                     __end_of_MSSP_I2C_Send_Stop_Condition:
  2017                           	callstack 0
  2018                           
  2019 ;; *************** function _MSSP_I2C_Send_Start_Condition *****************
  2020 ;; Defined at:
  2021 ;;		line 66 in file "MCAL_layer/MSSP/I2C/MCAL_I2C.c"
  2022 ;; Parameters:    Size  Location     Type
  2023 ;;  i2c_obj         2    2[COMRAM] PTR const struct .
  2024 ;;		 -> I2C_obj(11), 
  2025 ;; Auto vars:     Size  Location     Type
  2026 ;;  ret             1    0        unsigned char 
  2027 ;; Return value:  Size  Location     Type
  2028 ;;                  1    wreg      unsigned char 
  2029 ;; Registers used:
  2030 ;;		wreg, status,2, status,0
  2031 ;; Tracked objects:
  2032 ;;		On entry : 0/0
  2033 ;;		On exit  : 0/0
  2034 ;;		Unchanged: 0/0
  2035 ;; Data sizes:     COMRAM   BANK0   BANK1   BANK2   BANK3   BANK4   BANK5   BANK6   BANK7   BANK8   BANK9  BANK10  BANK1
      +1  BANK12  BANK13  BANK14  BANK15
  2036 ;;      Params:         2       0       0       0       0       0       0       0       0       0       0       0       
      +0       0       0       0       0
  2037 ;;      Locals:         0       0       0       0       0       0       0       0       0       0       0       0       
      +0       0       0       0       0
  2038 ;;      Temps:          0       0       0       0       0       0       0       0       0       0       0       0       
      +0       0       0       0       0
  2039 ;;      Totals:         2       0       0       0       0       0       0       0       0       0       0       0       
      +0       0       0       0       0
  2040 ;;Total ram usage:        2 bytes
  2041 ;; Hardware stack levels used: 1
  2042 ;; Hardware stack levels required when called: 3
  2043 ;; This function calls:
  2044 ;;		Nothing
  2045 ;; This function is called by:
  2046 ;;		_main
  2047 ;; This function uses a non-reentrant model
  2048 ;;
  2049                           
  2050                           	psect	text12
  2051   001A44                     __ptext12:
  2052                           	callstack 0
  2053   001A44                     _MSSP_I2C_Send_Start_Condition:
  2054                           	callstack 27
  2055   001A44                     
  2056                           ;MCAL_layer/MSSP/I2C/MCAL_I2C.c: 68:     if(i2c_obj == ((void*)0) ){
  2057   001A44  506C               	movf	MSSP_I2C_Send_Start_Condition@i2c_obj^0,w,c
  2058   001A46  106D               	iorwf	(MSSP_I2C_Send_Start_Condition@i2c_obj+1)^0,w,c
  2059   001A48  A4D8               	btfss	status,2,c
  2060   001A4A  EF29  F00D         	goto	u3651
  2061   001A4E  EF2B  F00D         	goto	u3650
  2062   001A52                     u3651:
  2063   001A52  EF2D  F00D         	goto	l1167
  2064   001A56                     u3650:
  2065   001A56                     
  2066                           ;MCAL_layer/MSSP/I2C/MCAL_I2C.c: 70:     }
  2067   001A56  EF37  F00D         	goto	l1173
  2068   001A5A                     l1167:
  2069                           
  2070                           ;MCAL_layer/MSSP/I2C/MCAL_I2C.c: 72:         SSPCON2bits.SEN = 1;
  2071   001A5A  80C5               	bsf	197,0,c	;volatile
  2072   001A5C                     l1169:
  2073   001A5C  B0C5               	btfsc	197,0,c	;volatile
  2074   001A5E  EF33  F00D         	goto	u3661
  2075   001A62  EF35  F00D         	goto	u3660
  2076   001A66                     u3661:
  2077   001A66  EF2E  F00D         	goto	l1169
  2078   001A6A                     u3660:
  2079   001A6A                     
  2080                           ;MCAL_layer/MSSP/I2C/MCAL_I2C.c: 74:         PIR1bits.SSPIF = 0;
  2081   001A6A  969E               	bcf	158,3,c	;volatile
  2082                           
  2083                           ;MCAL_layer/MSSP/I2C/MCAL_I2C.c: 75:         if(SSPSTATbits.S == 0x01){
  2084   001A6C  50C7               	movf	199,w,c	;volatile
  2085   001A6E                     l1173:
  2086   001A6E  0012               	return		;funcret
  2087   001A70                     __end_of_MSSP_I2C_Send_Start_Condition:
  2088                           	callstack 0
  2089                           
  2090 ;; *************** function _interrupt_manger *****************
  2091 ;; Defined at:
  2092 ;;		line 28 in file "MCAL_layer/INTERRUPT/mcal_interrupt_manager.c"
  2093 ;; Parameters:    Size  Location     Type
  2094 ;;		None
  2095 ;; Auto vars:     Size  Location     Type
  2096 ;;		None
  2097 ;; Return value:  Size  Location     Type
  2098 ;;                  1    wreg      void 
  2099 ;; Registers used:
  2100 ;;		wreg, status,2, status,0, cstack
  2101 ;; Tracked objects:
  2102 ;;		On entry : 0/0
  2103 ;;		On exit  : 0/0
  2104 ;;		Unchanged: 0/0
  2105 ;; Data sizes:     COMRAM   BANK0   BANK1   BANK2   BANK3   BANK4   BANK5   BANK6   BANK7   BANK8   BANK9  BANK10  BANK1
      +1  BANK12  BANK13  BANK14  BANK15
  2106 ;;      Params:         0       0       0       0       0       0       0       0       0       0       0       0       
      +0       0       0       0       0
  2107 ;;      Locals:         0       0       0       0       0       0       0       0       0       0       0       0       
      +0       0       0       0       0
  2108 ;;      Temps:          0       0       0       0       0       0       0       0       0       0       0       0       
      +0       0       0       0       0
  2109 ;;      Totals:         0       0       0       0       0       0       0       0       0       0       0       0       
      +0       0       0       0       0
  2110 ;;Total ram usage:        0 bytes
  2111 ;; Hardware stack levels used: 1
  2112 ;; Hardware stack levels required when called: 2
  2113 ;; This function calls:
  2114 ;;		_ADC_ISR
  2115 ;;		_CCP1_ISR
  2116 ;;		_CCP2_ISR
  2117 ;;		_I2C_BUS_COL_ISR
  2118 ;;		_I2C_ISR
  2119 ;;		_INT0_ISR
  2120 ;;		_INT1_ISR
  2121 ;;		_INT2_ISR
  2122 ;;		_RB4_ISR
  2123 ;;		_RB5_ISR
  2124 ;;		_RB6_ISR
  2125 ;;		_RB7_ISR
  2126 ;;		_Rx_ISR
  2127 ;;		_TIMER0_ISR
  2128 ;;		_TIMER1_ISR
  2129 ;;		_TIMER2_ISR
  2130 ;;		_TIMER3_ISR
  2131 ;;		_Tx_ISR
  2132 ;; This function is called by:
  2133 ;;		Interrupt level 2
  2134 ;; This function uses a non-reentrant model
  2135 ;;
  2136                           
  2137                           	psect	intcode
  2138   000008                     __pintcode:
  2139                           	callstack 0
  2140   000008                     _interrupt_manger:
  2141                           	callstack 24
  2142                           
  2143                           ;incstack = 0
  2144   000008  827C               	bsf	int$flags,1,c	;set compiler interrupt flag (level 2)
  2145   00000A  ED03  F008         	call	int_func,f	;refresh shadow registers
  2146                           
  2147                           	psect	intcode_body
  2148   001006                     __pintcode_body:
  2149                           	callstack 24
  2150   001006                     int_func:
  2151                           	callstack 24
  2152   001006  0006               	pop		; remove dummy address from shadow register refresh
  2153   001008                     
  2154                           ;MCAL_layer/INTERRUPT/mcal_interrupt_manager.c: 30:     if(INTCONbits.INT0F == 0x01 && I
      +                          NTCONbits.INT0E == 0x01 )
  2155   001008  A2F2               	btfss	242,1,c	;volatile
  2156   00100A  EF09  F008         	goto	i2u429_41
  2157   00100E  EF0B  F008         	goto	i2u429_40
  2158   001012                     i2u429_41:
  2159   001012  EF14  F008         	goto	i2l5664
  2160   001016                     i2u429_40:
  2161   001016  A8F2               	btfss	242,4,c	;volatile
  2162   001018  EF10  F008         	goto	i2u430_41
  2163   00101C  EF12  F008         	goto	i2u430_40
  2164   001020                     i2u430_41:
  2165   001020  EF14  F008         	goto	i2l5664
  2166   001024                     i2u430_40:
  2167   001024                     
  2168                           ;MCAL_layer/INTERRUPT/mcal_interrupt_manager.c: 31:     {;MCAL_layer/INTERRUPT/mcal_inte
      +                          rrupt_manager.c: 32:          INT0_ISR();
  2169   001024  ECCD  F00D         	call	_INT0_ISR	;wreg free
  2170   001028                     i2l5664:
  2171                           
  2172                           ;MCAL_layer/INTERRUPT/mcal_interrupt_manager.c: 34:     if(INTCON3bits.INT1F == 0x01 && 
      +                          INTCON3bits.INT1E == 0x01)
  2173   001028  A0F0               	btfss	240,0,c	;volatile
  2174   00102A  EF19  F008         	goto	i2u431_41
  2175   00102E  EF1B  F008         	goto	i2u431_40
  2176   001032                     i2u431_41:
  2177   001032  EF24  F008         	goto	i2l5670
  2178   001036                     i2u431_40:
  2179   001036  A6F0               	btfss	240,3,c	;volatile
  2180   001038  EF20  F008         	goto	i2u432_41
  2181   00103C  EF22  F008         	goto	i2u432_40
  2182   001040                     i2u432_41:
  2183   001040  EF24  F008         	goto	i2l5670
  2184   001044                     i2u432_40:
  2185   001044                     
  2186                           ;MCAL_layer/INTERRUPT/mcal_interrupt_manager.c: 35:     {;MCAL_layer/INTERRUPT/mcal_inte
      +                          rrupt_manager.c: 36:          INT1_ISR();
  2187   001044  ECCB  F00D         	call	_INT1_ISR	;wreg free
  2188   001048                     i2l5670:
  2189                           
  2190                           ;MCAL_layer/INTERRUPT/mcal_interrupt_manager.c: 38:     if(INTCON3bits.INT2F == 0x01 && 
      +                          INTCON3bits.INT2E == 0x01)
  2191   001048  A2F0               	btfss	240,1,c	;volatile
  2192   00104A  EF29  F008         	goto	i2u433_41
  2193   00104E  EF2B  F008         	goto	i2u433_40
  2194   001052                     i2u433_41:
  2195   001052  EF34  F008         	goto	i2l5676
  2196   001056                     i2u433_40:
  2197   001056  A8F0               	btfss	240,4,c	;volatile
  2198   001058  EF30  F008         	goto	i2u434_41
  2199   00105C  EF32  F008         	goto	i2u434_40
  2200   001060                     i2u434_41:
  2201   001060  EF34  F008         	goto	i2l5676
  2202   001064                     i2u434_40:
  2203   001064                     
  2204                           ;MCAL_layer/INTERRUPT/mcal_interrupt_manager.c: 39:     {;MCAL_layer/INTERRUPT/mcal_inte
      +                          rrupt_manager.c: 40:         INT2_ISR();
  2205   001064  ECC9  F00D         	call	_INT2_ISR	;wreg free
  2206   001068                     i2l5676:
  2207                           
  2208                           ;MCAL_layer/INTERRUPT/mcal_interrupt_manager.c: 44:     if(INTCONbits.RBIF == 0x01 && IN
      +                          TCONbits.RBIE == 0x01 && PORTBbits.RB4 == HIGH && RB4_flag == 1)
  2209   001068  A0F2               	btfss	242,0,c	;volatile
  2210   00106A  EF39  F008         	goto	i2u435_41
  2211   00106E  EF3B  F008         	goto	i2u435_40
  2212   001072                     i2u435_41:
  2213   001072  EF56  F008         	goto	i2l5688
  2214   001076                     i2u435_40:
  2215   001076  A6F2               	btfss	242,3,c	;volatile
  2216   001078  EF40  F008         	goto	i2u436_41
  2217   00107C  EF42  F008         	goto	i2u436_40
  2218   001080                     i2u436_41:
  2219   001080  EF56  F008         	goto	i2l5688
  2220   001084                     i2u436_40:
  2221   001084  A881               	btfss	129,4,c	;volatile
  2222   001086  EF47  F008         	goto	i2u437_41
  2223   00108A  EF49  F008         	goto	i2u437_40
  2224   00108E                     i2u437_41:
  2225   00108E  EF56  F008         	goto	i2l5688
  2226   001092                     i2u437_40:
  2227   001092  0464               	decf	_RB4_flag^0,w,c	;volatile
  2228   001094  A4D8               	btfss	status,2,c
  2229   001096  EF4F  F008         	goto	i2u438_41
  2230   00109A  EF51  F008         	goto	i2u438_40
  2231   00109E                     i2u438_41:
  2232   00109E  EF56  F008         	goto	i2l5688
  2233   0010A2                     i2u438_40:
  2234   0010A2                     
  2235                           ;MCAL_layer/INTERRUPT/mcal_interrupt_manager.c: 45:     {;MCAL_layer/INTERRUPT/mcal_inte
      +                          rrupt_manager.c: 46:         RB4_flag = 0;
  2236   0010A2  0E00               	movlw	0
  2237   0010A4  6E64               	movwf	_RB4_flag^0,c	;volatile
  2238   0010A6                     
  2239                           ;MCAL_layer/INTERRUPT/mcal_interrupt_manager.c: 47:         RB4_ISR(0x01);
  2240   0010A6  0E01               	movlw	1
  2241   0010A8  EC7A  F00D         	call	_RB4_ISR
  2242   0010AC                     i2l5688:
  2243                           
  2244                           ;MCAL_layer/INTERRUPT/mcal_interrupt_manager.c: 49:     if(INTCONbits.RBIF == 0x01 && IN
      +                          TCONbits.RBIE == 0x01 && PORTBbits.RB4 == LOW && RB4_flag == 0)
  2245   0010AC  A0F2               	btfss	242,0,c	;volatile
  2246   0010AE  EF5B  F008         	goto	i2u439_41
  2247   0010B2  EF5D  F008         	goto	i2u439_40
  2248   0010B6                     i2u439_41:
  2249   0010B6  EF78  F008         	goto	i2l5700
  2250   0010BA                     i2u439_40:
  2251   0010BA  A6F2               	btfss	242,3,c	;volatile
  2252   0010BC  EF62  F008         	goto	i2u440_41
  2253   0010C0  EF64  F008         	goto	i2u440_40
  2254   0010C4                     i2u440_41:
  2255   0010C4  EF78  F008         	goto	i2l5700
  2256   0010C8                     i2u440_40:
  2257   0010C8  B881               	btfsc	129,4,c	;volatile
  2258   0010CA  EF69  F008         	goto	i2u441_41
  2259   0010CE  EF6B  F008         	goto	i2u441_40
  2260   0010D2                     i2u441_41:
  2261   0010D2  EF78  F008         	goto	i2l5700
  2262   0010D6                     i2u441_40:
  2263   0010D6  5064               	movf	_RB4_flag^0,w,c	;volatile
  2264   0010D8  A4D8               	btfss	status,2,c
  2265   0010DA  EF71  F008         	goto	i2u442_41
  2266   0010DE  EF73  F008         	goto	i2u442_40
  2267   0010E2                     i2u442_41:
  2268   0010E2  EF78  F008         	goto	i2l5700
  2269   0010E6                     i2u442_40:
  2270   0010E6                     
  2271                           ;MCAL_layer/INTERRUPT/mcal_interrupt_manager.c: 50:     {;MCAL_layer/INTERRUPT/mcal_inte
      +                          rrupt_manager.c: 51:         RB4_flag = 1;
  2272   0010E6  0E01               	movlw	1
  2273   0010E8  6E64               	movwf	_RB4_flag^0,c	;volatile
  2274   0010EA                     
  2275                           ;MCAL_layer/INTERRUPT/mcal_interrupt_manager.c: 52:         RB4_ISR(0x00);
  2276   0010EA  0E00               	movlw	0
  2277   0010EC  EC7A  F00D         	call	_RB4_ISR
  2278   0010F0                     i2l5700:
  2279                           
  2280                           ;MCAL_layer/INTERRUPT/mcal_interrupt_manager.c: 54:     if(INTCONbits.RBIF == 0x01 && IN
      +                          TCONbits.RBIE == 0x01 && PORTBbits.RB5 == HIGH && RB5_flag == 1)
  2281   0010F0  A0F2               	btfss	242,0,c	;volatile
  2282   0010F2  EF7D  F008         	goto	i2u443_41
  2283   0010F6  EF7F  F008         	goto	i2u443_40
  2284   0010FA                     i2u443_41:
  2285   0010FA  EF9A  F008         	goto	i2l5712
  2286   0010FE                     i2u443_40:
  2287   0010FE  A6F2               	btfss	242,3,c	;volatile
  2288   001100  EF84  F008         	goto	i2u444_41
  2289   001104  EF86  F008         	goto	i2u444_40
  2290   001108                     i2u444_41:
  2291   001108  EF9A  F008         	goto	i2l5712
  2292   00110C                     i2u444_40:
  2293   00110C  AA81               	btfss	129,5,c	;volatile
  2294   00110E  EF8B  F008         	goto	i2u445_41
  2295   001112  EF8D  F008         	goto	i2u445_40
  2296   001116                     i2u445_41:
  2297   001116  EF9A  F008         	goto	i2l5712
  2298   00111A                     i2u445_40:
  2299   00111A  0463               	decf	_RB5_flag^0,w,c	;volatile
  2300   00111C  A4D8               	btfss	status,2,c
  2301   00111E  EF93  F008         	goto	i2u446_41
  2302   001122  EF95  F008         	goto	i2u446_40
  2303   001126                     i2u446_41:
  2304   001126  EF9A  F008         	goto	i2l5712
  2305   00112A                     i2u446_40:
  2306   00112A                     
  2307                           ;MCAL_layer/INTERRUPT/mcal_interrupt_manager.c: 55:     {;MCAL_layer/INTERRUPT/mcal_inte
      +                          rrupt_manager.c: 56:         RB5_flag = 0;
  2308   00112A  0E00               	movlw	0
  2309   00112C  6E63               	movwf	_RB5_flag^0,c	;volatile
  2310   00112E                     
  2311                           ;MCAL_layer/INTERRUPT/mcal_interrupt_manager.c: 57:         RB5_ISR(0x01);
  2312   00112E  0E01               	movlw	1
  2313   001130  EC64  F00D         	call	_RB5_ISR
  2314   001134                     i2l5712:
  2315                           
  2316                           ;MCAL_layer/INTERRUPT/mcal_interrupt_manager.c: 59:     if(INTCONbits.RBIF == 0x01 && IN
      +                          TCONbits.RBIE == 0x01 && PORTBbits.RB5 == LOW && RB5_flag == 0)
  2317   001134  A0F2               	btfss	242,0,c	;volatile
  2318   001136  EF9F  F008         	goto	i2u447_41
  2319   00113A  EFA1  F008         	goto	i2u447_40
  2320   00113E                     i2u447_41:
  2321   00113E  EFBC  F008         	goto	i2l5724
  2322   001142                     i2u447_40:
  2323   001142  A6F2               	btfss	242,3,c	;volatile
  2324   001144  EFA6  F008         	goto	i2u448_41
  2325   001148  EFA8  F008         	goto	i2u448_40
  2326   00114C                     i2u448_41:
  2327   00114C  EFBC  F008         	goto	i2l5724
  2328   001150                     i2u448_40:
  2329   001150  BA81               	btfsc	129,5,c	;volatile
  2330   001152  EFAD  F008         	goto	i2u449_41
  2331   001156  EFAF  F008         	goto	i2u449_40
  2332   00115A                     i2u449_41:
  2333   00115A  EFBC  F008         	goto	i2l5724
  2334   00115E                     i2u449_40:
  2335   00115E  5063               	movf	_RB5_flag^0,w,c	;volatile
  2336   001160  A4D8               	btfss	status,2,c
  2337   001162  EFB5  F008         	goto	i2u450_41
  2338   001166  EFB7  F008         	goto	i2u450_40
  2339   00116A                     i2u450_41:
  2340   00116A  EFBC  F008         	goto	i2l5724
  2341   00116E                     i2u450_40:
  2342   00116E                     
  2343                           ;MCAL_layer/INTERRUPT/mcal_interrupt_manager.c: 60:     {;MCAL_layer/INTERRUPT/mcal_inte
      +                          rrupt_manager.c: 61:         RB5_flag = 1;
  2344   00116E  0E01               	movlw	1
  2345   001170  6E63               	movwf	_RB5_flag^0,c	;volatile
  2346   001172                     
  2347                           ;MCAL_layer/INTERRUPT/mcal_interrupt_manager.c: 62:         RB5_ISR(0x00);
  2348   001172  0E00               	movlw	0
  2349   001174  EC64  F00D         	call	_RB5_ISR
  2350   001178                     i2l5724:
  2351                           
  2352                           ;MCAL_layer/INTERRUPT/mcal_interrupt_manager.c: 64:     if(INTCONbits.RBIF == 0x01 && IN
      +                          TCONbits.RBIE == 0x01 && PORTBbits.RB6 == HIGH && RB6_flag == 1)
  2353   001178  A0F2               	btfss	242,0,c	;volatile
  2354   00117A  EFC1  F008         	goto	i2u451_41
  2355   00117E  EFC3  F008         	goto	i2u451_40
  2356   001182                     i2u451_41:
  2357   001182  EFDE  F008         	goto	i2l5736
  2358   001186                     i2u451_40:
  2359   001186  A6F2               	btfss	242,3,c	;volatile
  2360   001188  EFC8  F008         	goto	i2u452_41
  2361   00118C  EFCA  F008         	goto	i2u452_40
  2362   001190                     i2u452_41:
  2363   001190  EFDE  F008         	goto	i2l5736
  2364   001194                     i2u452_40:
  2365   001194  AC81               	btfss	129,6,c	;volatile
  2366   001196  EFCF  F008         	goto	i2u453_41
  2367   00119A  EFD1  F008         	goto	i2u453_40
  2368   00119E                     i2u453_41:
  2369   00119E  EFDE  F008         	goto	i2l5736
  2370   0011A2                     i2u453_40:
  2371   0011A2  0462               	decf	_RB6_flag^0,w,c	;volatile
  2372   0011A4  A4D8               	btfss	status,2,c
  2373   0011A6  EFD7  F008         	goto	i2u454_41
  2374   0011AA  EFD9  F008         	goto	i2u454_40
  2375   0011AE                     i2u454_41:
  2376   0011AE  EFDE  F008         	goto	i2l5736
  2377   0011B2                     i2u454_40:
  2378   0011B2                     
  2379                           ;MCAL_layer/INTERRUPT/mcal_interrupt_manager.c: 65:     {;MCAL_layer/INTERRUPT/mcal_inte
      +                          rrupt_manager.c: 66:         RB6_flag = 0;
  2380   0011B2  0E00               	movlw	0
  2381   0011B4  6E62               	movwf	_RB6_flag^0,c	;volatile
  2382   0011B6                     
  2383                           ;MCAL_layer/INTERRUPT/mcal_interrupt_manager.c: 67:         RB6_ISR(0x01);
  2384   0011B6  0E01               	movlw	1
  2385   0011B8  EC4E  F00D         	call	_RB6_ISR
  2386   0011BC                     i2l5736:
  2387                           
  2388                           ;MCAL_layer/INTERRUPT/mcal_interrupt_manager.c: 69:     if(INTCONbits.RBIF == 0x01 && IN
      +                          TCONbits.RBIE == 0x01 && PORTBbits.RB6 == LOW && RB6_flag == 0)
  2389   0011BC  A0F2               	btfss	242,0,c	;volatile
  2390   0011BE  EFE3  F008         	goto	i2u455_41
  2391   0011C2  EFE5  F008         	goto	i2u455_40
  2392   0011C6                     i2u455_41:
  2393   0011C6  EF00  F009         	goto	i2l5748
  2394   0011CA                     i2u455_40:
  2395   0011CA  A6F2               	btfss	242,3,c	;volatile
  2396   0011CC  EFEA  F008         	goto	i2u456_41
  2397   0011D0  EFEC  F008         	goto	i2u456_40
  2398   0011D4                     i2u456_41:
  2399   0011D4  EF00  F009         	goto	i2l5748
  2400   0011D8                     i2u456_40:
  2401   0011D8  BC81               	btfsc	129,6,c	;volatile
  2402   0011DA  EFF1  F008         	goto	i2u457_41
  2403   0011DE  EFF3  F008         	goto	i2u457_40
  2404   0011E2                     i2u457_41:
  2405   0011E2  EF00  F009         	goto	i2l5748
  2406   0011E6                     i2u457_40:
  2407   0011E6  5062               	movf	_RB6_flag^0,w,c	;volatile
  2408   0011E8  A4D8               	btfss	status,2,c
  2409   0011EA  EFF9  F008         	goto	i2u458_41
  2410   0011EE  EFFB  F008         	goto	i2u458_40
  2411   0011F2                     i2u458_41:
  2412   0011F2  EF00  F009         	goto	i2l5748
  2413   0011F6                     i2u458_40:
  2414   0011F6                     
  2415                           ;MCAL_layer/INTERRUPT/mcal_interrupt_manager.c: 70:     {;MCAL_layer/INTERRUPT/mcal_inte
      +                          rrupt_manager.c: 71:         RB6_flag = 1;
  2416   0011F6  0E01               	movlw	1
  2417   0011F8  6E62               	movwf	_RB6_flag^0,c	;volatile
  2418   0011FA                     
  2419                           ;MCAL_layer/INTERRUPT/mcal_interrupt_manager.c: 72:         RB6_ISR(0x00);
  2420   0011FA  0E00               	movlw	0
  2421   0011FC  EC4E  F00D         	call	_RB6_ISR
  2422   001200                     i2l5748:
  2423                           
  2424                           ;MCAL_layer/INTERRUPT/mcal_interrupt_manager.c: 74:     if(INTCONbits.RBIF == 0x01 && IN
      +                          TCONbits.RBIE == 0x01 && PORTBbits.RB7 == HIGH && RB7_flag == 1)
  2425   001200  A0F2               	btfss	242,0,c	;volatile
  2426   001202  EF05  F009         	goto	i2u459_41
  2427   001206  EF07  F009         	goto	i2u459_40
  2428   00120A                     i2u459_41:
  2429   00120A  EF22  F009         	goto	i2l5760
  2430   00120E                     i2u459_40:
  2431   00120E  A6F2               	btfss	242,3,c	;volatile
  2432   001210  EF0C  F009         	goto	i2u460_41
  2433   001214  EF0E  F009         	goto	i2u460_40
  2434   001218                     i2u460_41:
  2435   001218  EF22  F009         	goto	i2l5760
  2436   00121C                     i2u460_40:
  2437   00121C  AE81               	btfss	129,7,c	;volatile
  2438   00121E  EF13  F009         	goto	i2u461_41
  2439   001222  EF15  F009         	goto	i2u461_40
  2440   001226                     i2u461_41:
  2441   001226  EF22  F009         	goto	i2l5760
  2442   00122A                     i2u461_40:
  2443   00122A  0461               	decf	_RB7_flag^0,w,c	;volatile
  2444   00122C  A4D8               	btfss	status,2,c
  2445   00122E  EF1B  F009         	goto	i2u462_41
  2446   001232  EF1D  F009         	goto	i2u462_40
  2447   001236                     i2u462_41:
  2448   001236  EF22  F009         	goto	i2l5760
  2449   00123A                     i2u462_40:
  2450   00123A                     
  2451                           ;MCAL_layer/INTERRUPT/mcal_interrupt_manager.c: 75:     {;MCAL_layer/INTERRUPT/mcal_inte
      +                          rrupt_manager.c: 76:         RB7_flag = 0;
  2452   00123A  0E00               	movlw	0
  2453   00123C  6E61               	movwf	_RB7_flag^0,c	;volatile
  2454   00123E                     
  2455                           ;MCAL_layer/INTERRUPT/mcal_interrupt_manager.c: 77:         RB7_ISR(0x01);
  2456   00123E  0E01               	movlw	1
  2457   001240  EC38  F00D         	call	_RB7_ISR
  2458   001244                     i2l5760:
  2459                           
  2460                           ;MCAL_layer/INTERRUPT/mcal_interrupt_manager.c: 79:     if(INTCONbits.RBIF == 0x01 && IN
      +                          TCONbits.RBIE == 0x01 && PORTBbits.RB7 == LOW && RB7_flag == 0)
  2461   001244  A0F2               	btfss	242,0,c	;volatile
  2462   001246  EF27  F009         	goto	i2u463_41
  2463   00124A  EF29  F009         	goto	i2u463_40
  2464   00124E                     i2u463_41:
  2465   00124E  EF44  F009         	goto	i2l5772
  2466   001252                     i2u463_40:
  2467   001252  A6F2               	btfss	242,3,c	;volatile
  2468   001254  EF2E  F009         	goto	i2u464_41
  2469   001258  EF30  F009         	goto	i2u464_40
  2470   00125C                     i2u464_41:
  2471   00125C  EF44  F009         	goto	i2l5772
  2472   001260                     i2u464_40:
  2473   001260  BE81               	btfsc	129,7,c	;volatile
  2474   001262  EF35  F009         	goto	i2u465_41
  2475   001266  EF37  F009         	goto	i2u465_40
  2476   00126A                     i2u465_41:
  2477   00126A  EF44  F009         	goto	i2l5772
  2478   00126E                     i2u465_40:
  2479   00126E  5061               	movf	_RB7_flag^0,w,c	;volatile
  2480   001270  A4D8               	btfss	status,2,c
  2481   001272  EF3D  F009         	goto	i2u466_41
  2482   001276  EF3F  F009         	goto	i2u466_40
  2483   00127A                     i2u466_41:
  2484   00127A  EF44  F009         	goto	i2l5772
  2485   00127E                     i2u466_40:
  2486   00127E                     
  2487                           ;MCAL_layer/INTERRUPT/mcal_interrupt_manager.c: 80:     {;MCAL_layer/INTERRUPT/mcal_inte
      +                          rrupt_manager.c: 81:         RB5_flag = 1;
  2488   00127E  0E01               	movlw	1
  2489   001280  6E63               	movwf	_RB5_flag^0,c	;volatile
  2490   001282                     
  2491                           ;MCAL_layer/INTERRUPT/mcal_interrupt_manager.c: 82:         RB7_ISR(0x00);
  2492   001282  0E00               	movlw	0
  2493   001284  EC38  F00D         	call	_RB7_ISR
  2494   001288                     i2l5772:
  2495                           
  2496                           ;MCAL_layer/INTERRUPT/mcal_interrupt_manager.c: 85:     if( PIR1bits.ADIF == 0x01&& PIE1
      +                          bits.ADIE == 0x01 )
  2497   001288  AC9E               	btfss	158,6,c	;volatile
  2498   00128A  EF49  F009         	goto	i2u467_41
  2499   00128E  EF4B  F009         	goto	i2u467_40
  2500   001292                     i2u467_41:
  2501   001292  EF54  F009         	goto	i2l5778
  2502   001296                     i2u467_40:
  2503   001296  AC9D               	btfss	157,6,c	;volatile
  2504   001298  EF50  F009         	goto	i2u468_41
  2505   00129C  EF52  F009         	goto	i2u468_40
  2506   0012A0                     i2u468_41:
  2507   0012A0  EF54  F009         	goto	i2l5778
  2508   0012A4                     i2u468_40:
  2509   0012A4                     
  2510                           ;MCAL_layer/INTERRUPT/mcal_interrupt_manager.c: 86:     {;MCAL_layer/INTERRUPT/mcal_inte
      +                          rrupt_manager.c: 87:         ADC_ISR();
  2511   0012A4  ECD7  F00D         	call	_ADC_ISR	;wreg free
  2512   0012A8                     i2l5778:
  2513                           
  2514                           ;MCAL_layer/INTERRUPT/mcal_interrupt_manager.c: 90:     if(INTCONbits.TMR0IF == 0x01 && 
      +                          INTCONbits.TMR0IE == 0x01)
  2515   0012A8  A4F2               	btfss	242,2,c	;volatile
  2516   0012AA  EF59  F009         	goto	i2u469_41
  2517   0012AE  EF5B  F009         	goto	i2u469_40
  2518   0012B2                     i2u469_41:
  2519   0012B2  EF64  F009         	goto	i2l5784
  2520   0012B6                     i2u469_40:
  2521   0012B6  AAF2               	btfss	242,5,c	;volatile
  2522   0012B8  EF60  F009         	goto	i2u470_41
  2523   0012BC  EF62  F009         	goto	i2u470_40
  2524   0012C0                     i2u470_41:
  2525   0012C0  EF64  F009         	goto	i2l5784
  2526   0012C4                     i2u470_40:
  2527   0012C4                     
  2528                           ;MCAL_layer/INTERRUPT/mcal_interrupt_manager.c: 91:     {;MCAL_layer/INTERRUPT/mcal_inte
      +                          rrupt_manager.c: 92:         TIMER0_ISR();
  2529   0012C4  ECA9  F00D         	call	_TIMER0_ISR	;wreg free
  2530   0012C8                     i2l5784:
  2531                           
  2532                           ;MCAL_layer/INTERRUPT/mcal_interrupt_manager.c: 95:     if(PIR1bits.TMR1IF == 0x01 &&PIE
      +                          1bits.TMR1IE == 0x01)
  2533   0012C8  A09E               	btfss	158,0,c	;volatile
  2534   0012CA  EF69  F009         	goto	i2u471_41
  2535   0012CE  EF6B  F009         	goto	i2u471_40
  2536   0012D2                     i2u471_41:
  2537   0012D2  EF74  F009         	goto	i2l5790
  2538   0012D6                     i2u471_40:
  2539   0012D6  A09D               	btfss	157,0,c	;volatile
  2540   0012D8  EF70  F009         	goto	i2u472_41
  2541   0012DC  EF72  F009         	goto	i2u472_40
  2542   0012E0                     i2u472_41:
  2543   0012E0  EF74  F009         	goto	i2l5790
  2544   0012E4                     i2u472_40:
  2545   0012E4                     
  2546                           ;MCAL_layer/INTERRUPT/mcal_interrupt_manager.c: 96:     {;MCAL_layer/INTERRUPT/mcal_inte
      +                          rrupt_manager.c: 97:          TIMER1_ISR();
  2547   0012E4  ECA1  F00D         	call	_TIMER1_ISR	;wreg free
  2548   0012E8                     i2l5790:
  2549                           
  2550                           ;MCAL_layer/INTERRUPT/mcal_interrupt_manager.c: 100:     if(PIR1bits.TMR2IF == 0x01 &&PI
      +                          E1bits.TMR2IE == 0x01)
  2551   0012E8  A29E               	btfss	158,1,c	;volatile
  2552   0012EA  EF79  F009         	goto	i2u473_41
  2553   0012EE  EF7B  F009         	goto	i2u473_40
  2554   0012F2                     i2u473_41:
  2555   0012F2  EF84  F009         	goto	i2l5796
  2556   0012F6                     i2u473_40:
  2557   0012F6  A29D               	btfss	157,1,c	;volatile
  2558   0012F8  EF80  F009         	goto	i2u474_41
  2559   0012FC  EF82  F009         	goto	i2u474_40
  2560   001300                     i2u474_41:
  2561   001300  EF84  F009         	goto	i2l5796
  2562   001304                     i2u474_40:
  2563   001304                     
  2564                           ;MCAL_layer/INTERRUPT/mcal_interrupt_manager.c: 101:     {;MCAL_layer/INTERRUPT/mcal_int
      +                          errupt_manager.c: 102:          TIMER2_ISR();
  2565   001304  ECC3  F00D         	call	_TIMER2_ISR	;wreg free
  2566   001308                     i2l5796:
  2567                           
  2568                           ;MCAL_layer/INTERRUPT/mcal_interrupt_manager.c: 105:     if(PIR2bits.TMR3IF == 0x01 &&PI
      +                          E2bits.TMR3IE == 0x01)
  2569   001308  A2A1               	btfss	161,1,c	;volatile
  2570   00130A  EF89  F009         	goto	i2u475_41
  2571   00130E  EF8B  F009         	goto	i2u475_40
  2572   001312                     i2u475_41:
  2573   001312  EF94  F009         	goto	i2l5802
  2574   001316                     i2u475_40:
  2575   001316  A2A0               	btfss	160,1,c	;volatile
  2576   001318  EF90  F009         	goto	i2u476_41
  2577   00131C  EF92  F009         	goto	i2u476_40
  2578   001320                     i2u476_41:
  2579   001320  EF94  F009         	goto	i2l5802
  2580   001324                     i2u476_40:
  2581   001324                     
  2582                           ;MCAL_layer/INTERRUPT/mcal_interrupt_manager.c: 106:     {;MCAL_layer/INTERRUPT/mcal_int
      +                          errupt_manager.c: 107:          TIMER3_ISR();
  2583   001324  ECC7  F00D         	call	_TIMER3_ISR	;wreg free
  2584   001328                     i2l5802:
  2585                           
  2586                           ;MCAL_layer/INTERRUPT/mcal_interrupt_manager.c: 110:     if(PIR2bits.CCP2IF == 0x01 &&PI
      +                          E2bits.CCP2IE == 0x01)
  2587   001328  A0A1               	btfss	161,0,c	;volatile
  2588   00132A  EF99  F009         	goto	i2u477_41
  2589   00132E  EF9B  F009         	goto	i2u477_40
  2590   001332                     i2u477_41:
  2591   001332  EFA4  F009         	goto	i2l5808
  2592   001336                     i2u477_40:
  2593   001336  A0A0               	btfss	160,0,c	;volatile
  2594   001338  EFA0  F009         	goto	i2u478_41
  2595   00133C  EFA2  F009         	goto	i2u478_40
  2596   001340                     i2u478_41:
  2597   001340  EFA4  F009         	goto	i2l5808
  2598   001344                     i2u478_40:
  2599   001344                     
  2600                           ;MCAL_layer/INTERRUPT/mcal_interrupt_manager.c: 111:     {;MCAL_layer/INTERRUPT/mcal_int
      +                          errupt_manager.c: 112:          CCP2_ISR();
  2601   001344  ECD3  F00D         	call	_CCP2_ISR	;wreg free
  2602   001348                     i2l5808:
  2603                           
  2604                           ;MCAL_layer/INTERRUPT/mcal_interrupt_manager.c: 114:     if(PIR1bits.CCP1IF == 0x01 &&PI
      +                          E1bits.CCP1IE== 0x01)
  2605   001348  A49E               	btfss	158,2,c	;volatile
  2606   00134A  EFA9  F009         	goto	i2u479_41
  2607   00134E  EFAB  F009         	goto	i2u479_40
  2608   001352                     i2u479_41:
  2609   001352  EFB4  F009         	goto	i2l5814
  2610   001356                     i2u479_40:
  2611   001356  A49D               	btfss	157,2,c	;volatile
  2612   001358  EFB0  F009         	goto	i2u480_41
  2613   00135C  EFB2  F009         	goto	i2u480_40
  2614   001360                     i2u480_41:
  2615   001360  EFB4  F009         	goto	i2l5814
  2616   001364                     i2u480_40:
  2617   001364                     
  2618                           ;MCAL_layer/INTERRUPT/mcal_interrupt_manager.c: 115:     {;MCAL_layer/INTERRUPT/mcal_int
      +                          errupt_manager.c: 116:          CCP1_ISR();
  2619   001364  ECD5  F00D         	call	_CCP1_ISR	;wreg free
  2620   001368                     i2l5814:
  2621                           
  2622                           ;MCAL_layer/INTERRUPT/mcal_interrupt_manager.c: 119:     if(PIR1bits.RCIF ==0x01 && PIE1
      +                          bits.RCIE == 0x01 )
  2623   001368  AA9E               	btfss	158,5,c	;volatile
  2624   00136A  EFB9  F009         	goto	i2u481_41
  2625   00136E  EFBB  F009         	goto	i2u481_40
  2626   001372                     i2u481_41:
  2627   001372  EFC4  F009         	goto	i2l5820
  2628   001376                     i2u481_40:
  2629   001376  AA9D               	btfss	157,5,c	;volatile
  2630   001378  EFC0  F009         	goto	i2u482_41
  2631   00137C  EFC2  F009         	goto	i2u482_40
  2632   001380                     i2u482_41:
  2633   001380  EFC4  F009         	goto	i2l5820
  2634   001384                     i2u482_40:
  2635   001384                     
  2636                           ;MCAL_layer/INTERRUPT/mcal_interrupt_manager.c: 120:     {;MCAL_layer/INTERRUPT/mcal_int
      +                          errupt_manager.c: 121:         Rx_ISR();
  2637   001384  ECDA  F00D         	call	_Rx_ISR	;wreg free
  2638   001388                     i2l5820:
  2639                           
  2640                           ;MCAL_layer/INTERRUPT/mcal_interrupt_manager.c: 123:     if(PIR1bits.TXIF ==0x01 && PIE1
      +                          bits.TXIE == 0x01 )
  2641   001388  A89E               	btfss	158,4,c	;volatile
  2642   00138A  EFC9  F009         	goto	i2u483_41
  2643   00138E  EFCB  F009         	goto	i2u483_40
  2644   001392                     i2u483_41:
  2645   001392  EFD4  F009         	goto	i2l5826
  2646   001396                     i2u483_40:
  2647   001396  A89D               	btfss	157,4,c	;volatile
  2648   001398  EFD0  F009         	goto	i2u484_41
  2649   00139C  EFD2  F009         	goto	i2u484_40
  2650   0013A0                     i2u484_41:
  2651   0013A0  EFD4  F009         	goto	i2l5826
  2652   0013A4                     i2u484_40:
  2653   0013A4                     
  2654                           ;MCAL_layer/INTERRUPT/mcal_interrupt_manager.c: 124:     {;MCAL_layer/INTERRUPT/mcal_int
      +                          errupt_manager.c: 125:         Tx_ISR();
  2655   0013A4  ECD9  F00D         	call	_Tx_ISR	;wreg free
  2656   0013A8                     i2l5826:
  2657                           
  2658                           ;MCAL_layer/INTERRUPT/mcal_interrupt_manager.c: 128:     if(PIR1bits.SSPIF ==0x01 && PIE
      +                          1bits.SSPIE == 0x01 )
  2659   0013A8  A69E               	btfss	158,3,c	;volatile
  2660   0013AA  EFD9  F009         	goto	i2u485_41
  2661   0013AE  EFDB  F009         	goto	i2u485_40
  2662   0013B2                     i2u485_41:
  2663   0013B2  EFE4  F009         	goto	i2l5832
  2664   0013B6                     i2u485_40:
  2665   0013B6  A69D               	btfss	157,3,c	;volatile
  2666   0013B8  EFE0  F009         	goto	i2u486_41
  2667   0013BC  EFE2  F009         	goto	i2u486_40
  2668   0013C0                     i2u486_41:
  2669   0013C0  EFE4  F009         	goto	i2l5832
  2670   0013C4                     i2u486_40:
  2671   0013C4                     
  2672                           ;MCAL_layer/INTERRUPT/mcal_interrupt_manager.c: 129:     {;MCAL_layer/INTERRUPT/mcal_int
      +                          errupt_manager.c: 130:         I2C_ISR();
  2673   0013C4  ECCF  F00D         	call	_I2C_ISR	;wreg free
  2674   0013C8                     i2l5832:
  2675                           
  2676                           ;MCAL_layer/INTERRUPT/mcal_interrupt_manager.c: 132:      if(PIR2bits.BCLIF ==0x01 && PI
      +                          E2bits.BCLIE == 0x01 )
  2677   0013C8  A6A1               	btfss	161,3,c	;volatile
  2678   0013CA  EFE9  F009         	goto	i2u487_41
  2679   0013CE  EFEB  F009         	goto	i2u487_40
  2680   0013D2                     i2u487_41:
  2681   0013D2  EFF4  F009         	goto	i2l909
  2682   0013D6                     i2u487_40:
  2683   0013D6  A6A0               	btfss	160,3,c	;volatile
  2684   0013D8  EFF0  F009         	goto	i2u488_41
  2685   0013DC  EFF2  F009         	goto	i2u488_40
  2686   0013E0                     i2u488_41:
  2687   0013E0  EFF4  F009         	goto	i2l909
  2688   0013E4                     i2u488_40:
  2689   0013E4                     
  2690                           ;MCAL_layer/INTERRUPT/mcal_interrupt_manager.c: 133:     {;MCAL_layer/INTERRUPT/mcal_int
      +                          errupt_manager.c: 134:        I2C_BUS_COL_ISR();
  2691   0013E4  ECD1  F00D         	call	_I2C_BUS_COL_ISR	;wreg free
  2692   0013E8                     i2l909:
  2693   0013E8  927C               	bcf	int$flags,1,c	;clear compiler interrupt flag (level 2)
  2694   0013EA  0011               	retfie		f
  2695   0013EC                     __end_of_interrupt_manger:
  2696                           	callstack 0
  2697                           
  2698 ;; *************** function _Tx_ISR *****************
  2699 ;; Defined at:
  2700 ;;		line 412 in file "MCAL_layer/EUSART/mcal_eusart.c"
  2701 ;; Parameters:    Size  Location     Type
  2702 ;;		None
  2703 ;; Auto vars:     Size  Location     Type
  2704 ;;		None
  2705 ;; Return value:  Size  Location     Type
  2706 ;;                  1    wreg      void 
  2707 ;; Registers used:
  2708 ;;		wreg, status,2, status,0
  2709 ;; Tracked objects:
  2710 ;;		On entry : 0/0
  2711 ;;		On exit  : 0/0
  2712 ;;		Unchanged: 0/0
  2713 ;; Data sizes:     COMRAM   BANK0   BANK1   BANK2   BANK3   BANK4   BANK5   BANK6   BANK7   BANK8   BANK9  BANK10  BANK1
      +1  BANK12  BANK13  BANK14  BANK15
  2714 ;;      Params:         0       0       0       0       0       0       0       0       0       0       0       0       
      +0       0       0       0       0
  2715 ;;      Locals:         0       0       0       0       0       0       0       0       0       0       0       0       
      +0       0       0       0       0
  2716 ;;      Temps:          0       0       0       0       0       0       0       0       0       0       0       0       
      +0       0       0       0       0
  2717 ;;      Totals:         0       0       0       0       0       0       0       0       0       0       0       0       
      +0       0       0       0       0
  2718 ;;Total ram usage:        0 bytes
  2719 ;; Hardware stack levels used: 1
  2720 ;; This function calls:
  2721 ;;		Nothing
  2722 ;; This function is called by:
  2723 ;;		_interrupt_manger
  2724 ;; This function uses a non-reentrant model
  2725 ;;
  2726                           
  2727                           	psect	text14
  2728   001BB2                     __ptext14:
  2729                           	callstack 0
  2730   001BB2                     _Tx_ISR:
  2731                           	callstack 25
  2732   001BB2  0012               	return		;funcret
  2733   001BB4                     __end_of_Tx_ISR:
  2734                           	callstack 0
  2735                           
  2736 ;; *************** function _TIMER3_ISR *****************
  2737 ;; Defined at:
  2738 ;;		line 172 in file "MCAL_layer/TIMER3/mcal_timer3.c"
  2739 ;; Parameters:    Size  Location     Type
  2740 ;;		None
  2741 ;; Auto vars:     Size  Location     Type
  2742 ;;		None
  2743 ;; Return value:  Size  Location     Type
  2744 ;;                  1    wreg      void 
  2745 ;; Registers used:
  2746 ;;		None
  2747 ;; Tracked objects:
  2748 ;;		On entry : 0/0
  2749 ;;		On exit  : 0/0
  2750 ;;		Unchanged: 0/0
  2751 ;; Data sizes:     COMRAM   BANK0   BANK1   BANK2   BANK3   BANK4   BANK5   BANK6   BANK7   BANK8   BANK9  BANK10  BANK1
      +1  BANK12  BANK13  BANK14  BANK15
  2752 ;;      Params:         0       0       0       0       0       0       0       0       0       0       0       0       
      +0       0       0       0       0
  2753 ;;      Locals:         0       0       0       0       0       0       0       0       0       0       0       0       
      +0       0       0       0       0
  2754 ;;      Temps:          0       0       0       0       0       0       0       0       0       0       0       0       
      +0       0       0       0       0
  2755 ;;      Totals:         0       0       0       0       0       0       0       0       0       0       0       0       
      +0       0       0       0       0
  2756 ;;Total ram usage:        0 bytes
  2757 ;; Hardware stack levels used: 1
  2758 ;; This function calls:
  2759 ;;		Nothing
  2760 ;; This function is called by:
  2761 ;;		_interrupt_manger
  2762 ;; This function uses a non-reentrant model
  2763 ;;
  2764                           
  2765                           	psect	text15
  2766   001B8E                     __ptext15:
  2767                           	callstack 0
  2768   001B8E                     _TIMER3_ISR:
  2769                           	callstack 25
  2770   001B8E                     
  2771                           ;MCAL_layer/TIMER3/mcal_timer3.c: 174:     PIR2bits.TMR3IF = 0;
  2772   001B8E  92A1               	bcf	161,1,c	;volatile
  2773   001B90  0012               	return		;funcret
  2774   001B92                     __end_of_TIMER3_ISR:
  2775                           	callstack 0
  2776                           
  2777 ;; *************** function _TIMER2_ISR *****************
  2778 ;; Defined at:
  2779 ;;		line 103 in file "MCAL_layer/TIMER2/mcal_timer2.c"
  2780 ;; Parameters:    Size  Location     Type
  2781 ;;		None
  2782 ;; Auto vars:     Size  Location     Type
  2783 ;;		None
  2784 ;; Return value:  Size  Location     Type
  2785 ;;                  1    wreg      void 
  2786 ;; Registers used:
  2787 ;;		None
  2788 ;; Tracked objects:
  2789 ;;		On entry : 0/0
  2790 ;;		On exit  : 0/0
  2791 ;;		Unchanged: 0/0
  2792 ;; Data sizes:     COMRAM   BANK0   BANK1   BANK2   BANK3   BANK4   BANK5   BANK6   BANK7   BANK8   BANK9  BANK10  BANK1
      +1  BANK12  BANK13  BANK14  BANK15
  2793 ;;      Params:         0       0       0       0       0       0       0       0       0       0       0       0       
      +0       0       0       0       0
  2794 ;;      Locals:         0       0       0       0       0       0       0       0       0       0       0       0       
      +0       0       0       0       0
  2795 ;;      Temps:          0       0       0       0       0       0       0       0       0       0       0       0       
      +0       0       0       0       0
  2796 ;;      Totals:         0       0       0       0       0       0       0       0       0       0       0       0       
      +0       0       0       0       0
  2797 ;;Total ram usage:        0 bytes
  2798 ;; Hardware stack levels used: 1
  2799 ;; This function calls:
  2800 ;;		Nothing
  2801 ;; This function is called by:
  2802 ;;		_interrupt_manger
  2803 ;; This function uses a non-reentrant model
  2804 ;;
  2805                           
  2806                           	psect	text16
  2807   001B86                     __ptext16:
  2808                           	callstack 0
  2809   001B86                     _TIMER2_ISR:
  2810                           	callstack 25
  2811   001B86                     
  2812                           ;MCAL_layer/TIMER2/mcal_timer2.c: 105:     PIR1bits.TMR2IF = 0;
  2813   001B86  929E               	bcf	158,1,c	;volatile
  2814                           
  2815                           ;MCAL_layer/TIMER2/mcal_timer2.c: 106:     TMR2 = preloaded_val;
  2816   001B88  C041  FFCC         	movff	_preloaded_val@mcal_timer2$F3891,4044	;volatile
  2817   001B8C  0012               	return		;funcret
  2818   001B8E                     __end_of_TIMER2_ISR:
  2819                           	callstack 0
  2820                           
  2821 ;; *************** function _TIMER1_ISR *****************
  2822 ;; Defined at:
  2823 ;;		line 196 in file "MCAL_layer/TIMER1/mcal_timer1.c"
  2824 ;; Parameters:    Size  Location     Type
  2825 ;;		None
  2826 ;; Auto vars:     Size  Location     Type
  2827 ;;		None
  2828 ;; Return value:  Size  Location     Type
  2829 ;;                  1    wreg      void 
  2830 ;; Registers used:
  2831 ;;		wreg, status,2, cstack
  2832 ;; Tracked objects:
  2833 ;;		On entry : 0/0
  2834 ;;		On exit  : 0/0
  2835 ;;		Unchanged: 0/0
  2836 ;; Data sizes:     COMRAM   BANK0   BANK1   BANK2   BANK3   BANK4   BANK5   BANK6   BANK7   BANK8   BANK9  BANK10  BANK1
      +1  BANK12  BANK13  BANK14  BANK15
  2837 ;;      Params:         0       0       0       0       0       0       0       0       0       0       0       0       
      +0       0       0       0       0
  2838 ;;      Locals:         0       0       0       0       0       0       0       0       0       0       0       0       
      +0       0       0       0       0
  2839 ;;      Temps:          0       0       0       0       0       0       0       0       0       0       0       0       
      +0       0       0       0       0
  2840 ;;      Totals:         0       0       0       0       0       0       0       0       0       0       0       0       
      +0       0       0       0       0
  2841 ;;Total ram usage:        0 bytes
  2842 ;; Hardware stack levels used: 1
  2843 ;; Hardware stack levels required when called: 1
  2844 ;; This function calls:
  2845 ;;		_Timer1_write_to_reg
  2846 ;; This function is called by:
  2847 ;;		_interrupt_manger
  2848 ;; This function uses a non-reentrant model
  2849 ;;
  2850                           
  2851                           	psect	text17
  2852   001B42                     __ptext17:
  2853                           	callstack 0
  2854   001B42                     _TIMER1_ISR:
  2855                           	callstack 24
  2856   001B42                     
  2857                           ;MCAL_layer/TIMER1/mcal_timer1.c: 198:     Timer1_write_to_reg(preloaded_val);
  2858   001B42  C010  F06A         	movff	_preloaded_val@mcal_timer1$F3736,Timer1_write_to_reg@val	;volatile
  2859   001B46  C011  F06B         	movff	_preloaded_val@mcal_timer1$F3736+1,Timer1_write_to_reg@val+1	;volatile
  2860   001B4A  ECBE  F00D         	call	_Timer1_write_to_reg	;wreg free
  2861   001B4E                     
  2862                           ;MCAL_layer/TIMER1/mcal_timer1.c: 199:     PIR1bits.TMR1IF = 0;
  2863   001B4E  909E               	bcf	158,0,c	;volatile
  2864   001B50  0012               	return		;funcret
  2865   001B52                     __end_of_TIMER1_ISR:
  2866                           	callstack 0
  2867                           
  2868 ;; *************** function _Timer1_write_to_reg *****************
  2869 ;; Defined at:
  2870 ;;		line 150 in file "MCAL_layer/TIMER1/mcal_timer1.c"
  2871 ;; Parameters:    Size  Location     Type
  2872 ;;  val             2    0[COMRAM] unsigned short 
  2873 ;; Auto vars:     Size  Location     Type
  2874 ;;  ret             1    0        unsigned char 
  2875 ;; Return value:  Size  Location     Type
  2876 ;;                  1    wreg      unsigned char 
  2877 ;; Registers used:
  2878 ;;		wreg, status,2
  2879 ;; Tracked objects:
  2880 ;;		On entry : 0/0
  2881 ;;		On exit  : 0/0
  2882 ;;		Unchanged: 0/0
  2883 ;; Data sizes:     COMRAM   BANK0   BANK1   BANK2   BANK3   BANK4   BANK5   BANK6   BANK7   BANK8   BANK9  BANK10  BANK1
      +1  BANK12  BANK13  BANK14  BANK15
  2884 ;;      Params:         2       0       0       0       0       0       0       0       0       0       0       0       
      +0       0       0       0       0
  2885 ;;      Locals:         0       0       0       0       0       0       0       0       0       0       0       0       
      +0       0       0       0       0
  2886 ;;      Temps:          0       0       0       0       0       0       0       0       0       0       0       0       
      +0       0       0       0       0
  2887 ;;      Totals:         2       0       0       0       0       0       0       0       0       0       0       0       
      +0       0       0       0       0
  2888 ;;Total ram usage:        2 bytes
  2889 ;; Hardware stack levels used: 1
  2890 ;; This function calls:
  2891 ;;		Nothing
  2892 ;; This function is called by:
  2893 ;;		_TIMER1_ISR
  2894 ;;		_mcal_Timer1_initialize
  2895 ;;		_mcal_Timer1_write_val
  2896 ;; This function uses a non-reentrant model
  2897 ;;
  2898                           
  2899                           	psect	text18
  2900   001B7C                     __ptext18:
  2901                           	callstack 0
  2902   001B7C                     _Timer1_write_to_reg:
  2903                           	callstack 24
  2904   001B7C                     
  2905                           ;MCAL_layer/TIMER1/mcal_timer1.c: 153:      TMR1H = (uint8)(val >> 8);
  2906   001B7C  506B               	movf	(Timer1_write_to_reg@val+1)^0,w,c
  2907   001B7E  6ECF               	movwf	207,c	;volatile
  2908   001B80                     
  2909                           ;MCAL_layer/TIMER1/mcal_timer1.c: 154:      TMR1L = (uint8)val;
  2910   001B80  C06A  FFCE         	movff	Timer1_write_to_reg@val,4046	;volatile
  2911   001B84  0012               	return		;funcret
  2912   001B86                     __end_of_Timer1_write_to_reg:
  2913                           	callstack 0
  2914                           
  2915 ;; *************** function _TIMER0_ISR *****************
  2916 ;; Defined at:
  2917 ;;		line 242 in file "MCAL_layer/TIMER0/mcal_timer0.c"
  2918 ;; Parameters:    Size  Location     Type
  2919 ;;		None
  2920 ;; Auto vars:     Size  Location     Type
  2921 ;;		None
  2922 ;; Return value:  Size  Location     Type
  2923 ;;                  1    wreg      void 
  2924 ;; Registers used:
  2925 ;;		wreg, status,2, cstack
  2926 ;; Tracked objects:
  2927 ;;		On entry : 0/0
  2928 ;;		On exit  : 0/0
  2929 ;;		Unchanged: 0/0
  2930 ;; Data sizes:     COMRAM   BANK0   BANK1   BANK2   BANK3   BANK4   BANK5   BANK6   BANK7   BANK8   BANK9  BANK10  BANK1
      +1  BANK12  BANK13  BANK14  BANK15
  2931 ;;      Params:         0       0       0       0       0       0       0       0       0       0       0       0       
      +0       0       0       0       0
  2932 ;;      Locals:         0       0       0       0       0       0       0       0       0       0       0       0       
      +0       0       0       0       0
  2933 ;;      Temps:          0       0       0       0       0       0       0       0       0       0       0       0       
      +0       0       0       0       0
  2934 ;;      Totals:         0       0       0       0       0       0       0       0       0       0       0       0       
      +0       0       0       0       0
  2935 ;;Total ram usage:        0 bytes
  2936 ;; Hardware stack levels used: 1
  2937 ;; Hardware stack levels required when called: 1
  2938 ;; This function calls:
  2939 ;;		_write_val_TMR0L_TMR0H
  2940 ;; This function is called by:
  2941 ;;		_interrupt_manger
  2942 ;; This function uses a non-reentrant model
  2943 ;;
  2944                           
  2945                           	psect	text19
  2946   001B52                     __ptext19:
  2947                           	callstack 0
  2948   001B52                     _TIMER0_ISR:
  2949                           	callstack 24
  2950   001B52                     
  2951                           ;MCAL_layer/TIMER0/mcal_timer0.c: 244:      INTCONbits.TMR0IF = 0;
  2952   001B52  94F2               	bcf	242,2,c	;volatile
  2953   001B54                     
  2954                           ;MCAL_layer/TIMER0/mcal_timer0.c: 245:       write_val_TMR0L_TMR0H(_preloaded_val);
  2955   001B54  C014  F06A         	movff	__preloaded_val,write_val_TMR0L_TMR0H@val	;volatile
  2956   001B58  C015  F06B         	movff	__preloaded_val+1,write_val_TMR0L_TMR0H@val+1	;volatile
  2957   001B5C  ECB8  F00D         	call	_write_val_TMR0L_TMR0H	;wreg free
  2958   001B60  0012               	return		;funcret
  2959   001B62                     __end_of_TIMER0_ISR:
  2960                           	callstack 0
  2961                           
  2962 ;; *************** function _write_val_TMR0L_TMR0H *****************
  2963 ;; Defined at:
  2964 ;;		line 232 in file "MCAL_layer/TIMER0/mcal_timer0.c"
  2965 ;; Parameters:    Size  Location     Type
  2966 ;;  val             2    0[COMRAM] unsigned short 
  2967 ;; Auto vars:     Size  Location     Type
  2968 ;;  ret             1    0        unsigned char 
  2969 ;; Return value:  Size  Location     Type
  2970 ;;                  1    wreg      unsigned char 
  2971 ;; Registers used:
  2972 ;;		wreg, status,2
  2973 ;; Tracked objects:
  2974 ;;		On entry : 0/0
  2975 ;;		On exit  : 0/0
  2976 ;;		Unchanged: 0/0
  2977 ;; Data sizes:     COMRAM   BANK0   BANK1   BANK2   BANK3   BANK4   BANK5   BANK6   BANK7   BANK8   BANK9  BANK10  BANK1
      +1  BANK12  BANK13  BANK14  BANK15
  2978 ;;      Params:         2       0       0       0       0       0       0       0       0       0       0       0       
      +0       0       0       0       0
  2979 ;;      Locals:         0       0       0       0       0       0       0       0       0       0       0       0       
      +0       0       0       0       0
  2980 ;;      Temps:          0       0       0       0       0       0       0       0       0       0       0       0       
      +0       0       0       0       0
  2981 ;;      Totals:         2       0       0       0       0       0       0       0       0       0       0       0       
      +0       0       0       0       0
  2982 ;;Total ram usage:        2 bytes
  2983 ;; Hardware stack levels used: 1
  2984 ;; This function calls:
  2985 ;;		Nothing
  2986 ;; This function is called by:
  2987 ;;		_TIMER0_ISR
  2988 ;;		_mcal_timer0_intialize
  2989 ;;		_mcal_timer0_write_value
  2990 ;; This function uses a non-reentrant model
  2991 ;;
  2992                           
  2993                           	psect	text20
  2994   001B70                     __ptext20:
  2995                           	callstack 0
  2996   001B70                     _write_val_TMR0L_TMR0H:
  2997                           	callstack 24
  2998   001B70                     
  2999                           ;MCAL_layer/TIMER0/mcal_timer0.c: 235:      TMR0H = (uint8)(val >> 8);
  3000   001B70  506B               	movf	(write_val_TMR0L_TMR0H@val+1)^0,w,c
  3001   001B72  6ED7               	movwf	215,c	;volatile
  3002   001B74                     
  3003                           ;MCAL_layer/TIMER0/mcal_timer0.c: 236:      TMR0L = (uint8)val;
  3004   001B74  C06A  FFD6         	movff	write_val_TMR0L_TMR0H@val,4054	;volatile
  3005                           
  3006                           ;MCAL_layer/TIMER0/mcal_timer0.c: 239:      return ret;
  3007   001B78  0E00               	movlw	0
  3008   001B7A  0012               	return		;funcret
  3009   001B7C                     __end_of_write_val_TMR0L_TMR0H:
  3010                           	callstack 0
  3011                           
  3012 ;; *************** function _Rx_ISR *****************
  3013 ;; Defined at:
  3014 ;;		line 402 in file "MCAL_layer/EUSART/mcal_eusart.c"
  3015 ;; Parameters:    Size  Location     Type
  3016 ;;		None
  3017 ;; Auto vars:     Size  Location     Type
  3018 ;;		None
  3019 ;; Return value:  Size  Location     Type
  3020 ;;                  1    wreg      void 
  3021 ;; Registers used:
  3022 ;;		wreg, status,2, status,0
  3023 ;; Tracked objects:
  3024 ;;		On entry : 0/0
  3025 ;;		On exit  : 0/0
  3026 ;;		Unchanged: 0/0
  3027 ;; Data sizes:     COMRAM   BANK0   BANK1   BANK2   BANK3   BANK4   BANK5   BANK6   BANK7   BANK8   BANK9  BANK10  BANK1
      +1  BANK12  BANK13  BANK14  BANK15
  3028 ;;      Params:         0       0       0       0       0       0       0       0       0       0       0       0       
      +0       0       0       0       0
  3029 ;;      Locals:         0       0       0       0       0       0       0       0       0       0       0       0       
      +0       0       0       0       0
  3030 ;;      Temps:          0       0       0       0       0       0       0       0       0       0       0       0       
      +0       0       0       0       0
  3031 ;;      Totals:         0       0       0       0       0       0       0       0       0       0       0       0       
      +0       0       0       0       0
  3032 ;;Total ram usage:        0 bytes
  3033 ;; Hardware stack levels used: 1
  3034 ;; This function calls:
  3035 ;;		Nothing
  3036 ;; This function is called by:
  3037 ;;		_interrupt_manger
  3038 ;; This function uses a non-reentrant model
  3039 ;;
  3040                           
  3041                           	psect	text21
  3042   001BB4                     __ptext21:
  3043                           	callstack 0
  3044   001BB4                     _Rx_ISR:
  3045                           	callstack 25
  3046   001BB4  0012               	return		;funcret
  3047   001BB6                     __end_of_Rx_ISR:
  3048                           	callstack 0
  3049                           
  3050 ;; *************** function _RB7_ISR *****************
  3051 ;; Defined at:
  3052 ;;		line 94 in file "MCAL_layer/INTERRUPT/mcal_external_interrupt.c"
  3053 ;; Parameters:    Size  Location     Type
  3054 ;;  src             1    wreg     unsigned char 
  3055 ;; Auto vars:     Size  Location     Type
  3056 ;;  src             1    0[COMRAM] unsigned char 
  3057 ;; Return value:  Size  Location     Type
  3058 ;;                  1    wreg      void 
  3059 ;; Registers used:
  3060 ;;		wreg, status,2, status,0
  3061 ;; Tracked objects:
  3062 ;;		On entry : 0/0
  3063 ;;		On exit  : 0/0
  3064 ;;		Unchanged: 0/0
  3065 ;; Data sizes:     COMRAM   BANK0   BANK1   BANK2   BANK3   BANK4   BANK5   BANK6   BANK7   BANK8   BANK9  BANK10  BANK1
      +1  BANK12  BANK13  BANK14  BANK15
  3066 ;;      Params:         0       0       0       0       0       0       0       0       0       0       0       0       
      +0       0       0       0       0
  3067 ;;      Locals:         1       0       0       0       0       0       0       0       0       0       0       0       
      +0       0       0       0       0
  3068 ;;      Temps:          0       0       0       0       0       0       0       0       0       0       0       0       
      +0       0       0       0       0
  3069 ;;      Totals:         1       0       0       0       0       0       0       0       0       0       0       0       
      +0       0       0       0       0
  3070 ;;Total ram usage:        1 bytes
  3071 ;; Hardware stack levels used: 1
  3072 ;; This function calls:
  3073 ;;		Nothing
  3074 ;; This function is called by:
  3075 ;;		_interrupt_manger
  3076 ;; This function uses a non-reentrant model
  3077 ;;
  3078                           
  3079                           	psect	text22
  3080   001A70                     __ptext22:
  3081                           	callstack 0
  3082   001A70                     _RB7_ISR:
  3083                           	callstack 25
  3084                           
  3085                           ;incstack = 0
  3086                           ;RB7_ISR@src stored from wreg
  3087   001A70  6E6A               	movwf	RB7_ISR@src^0,c
  3088   001A72                     
  3089                           ;MCAL_layer/INTERRUPT/mcal_external_interrupt.c: 94: void RB7_ISR(uint8 src);MCAL_layer/
      +                          INTERRUPT/mcal_external_interrupt.c: 95: {;MCAL_layer/INTERRUPT/mcal_external_interrupt.
      +                          c: 96:     INTCONbits.RBIF = 0;
  3090   001A72  90F2               	bcf	242,0,c	;volatile
  3091   001A74                     
  3092                           ;MCAL_layer/INTERRUPT/mcal_external_interrupt.c: 97:      if(src == 1 &&(RB7_high_handle
      +                          r)) RB7_high_handler();
  3093   001A74  046A               	decf	RB7_ISR@src^0,w,c
  3094   001A76  A4D8               	btfss	status,2,c
  3095   001A78  EF40  F00D         	goto	i2u57_41
  3096   001A7C  EF42  F00D         	goto	i2u57_40
  3097   001A80                     i2u57_41:
  3098   001A80  EF4D  F00D         	goto	i2l2750
  3099   001A84                     i2u57_40:
  3100   001A84  501E               	movf	_RB7_high_handler^0,w,c	;volatile
  3101   001A86  101F               	iorwf	(_RB7_high_handler+1)^0,w,c	;volatile
  3102   001A88  B4D8               	btfsc	status,2,c
  3103   001A8A  EF49  F00D         	goto	i2u58_41
  3104   001A8E  EF4B  F00D         	goto	i2u58_40
  3105   001A92                     i2u58_41:
  3106   001A92  EF4D  F00D         	goto	i2l2750
  3107   001A96                     i2u58_40:
  3108   001A96  EF4D  F00D         	goto	i2l999
  3109   001A9A                     i2l2750:
  3110   001A9A                     i2l999:
  3111   001A9A  0012               	return		;funcret
  3112   001A9C                     __end_of_RB7_ISR:
  3113                           	callstack 0
  3114                           
  3115 ;; *************** function _RB6_ISR *****************
  3116 ;; Defined at:
  3117 ;;		line 88 in file "MCAL_layer/INTERRUPT/mcal_external_interrupt.c"
  3118 ;; Parameters:    Size  Location     Type
  3119 ;;  src             1    wreg     unsigned char 
  3120 ;; Auto vars:     Size  Location     Type
  3121 ;;  src             1    0[COMRAM] unsigned char 
  3122 ;; Return value:  Size  Location     Type
  3123 ;;                  1    wreg      void 
  3124 ;; Registers used:
  3125 ;;		wreg, status,2, status,0
  3126 ;; Tracked objects:
  3127 ;;		On entry : 0/0
  3128 ;;		On exit  : 0/0
  3129 ;;		Unchanged: 0/0
  3130 ;; Data sizes:     COMRAM   BANK0   BANK1   BANK2   BANK3   BANK4   BANK5   BANK6   BANK7   BANK8   BANK9  BANK10  BANK1
      +1  BANK12  BANK13  BANK14  BANK15
  3131 ;;      Params:         0       0       0       0       0       0       0       0       0       0       0       0       
      +0       0       0       0       0
  3132 ;;      Locals:         1       0       0       0       0       0       0       0       0       0       0       0       
      +0       0       0       0       0
  3133 ;;      Temps:          0       0       0       0       0       0       0       0       0       0       0       0       
      +0       0       0       0       0
  3134 ;;      Totals:         1       0       0       0       0       0       0       0       0       0       0       0       
      +0       0       0       0       0
  3135 ;;Total ram usage:        1 bytes
  3136 ;; Hardware stack levels used: 1
  3137 ;; This function calls:
  3138 ;;		Nothing
  3139 ;; This function is called by:
  3140 ;;		_interrupt_manger
  3141 ;; This function uses a non-reentrant model
  3142 ;;
  3143                           
  3144                           	psect	text23
  3145   001A9C                     __ptext23:
  3146                           	callstack 0
  3147   001A9C                     _RB6_ISR:
  3148                           	callstack 25
  3149                           
  3150                           ;incstack = 0
  3151                           ;RB6_ISR@src stored from wreg
  3152   001A9C  6E6A               	movwf	RB6_ISR@src^0,c
  3153   001A9E                     
  3154                           ;MCAL_layer/INTERRUPT/mcal_external_interrupt.c: 88: void RB6_ISR(uint8 src);MCAL_layer/
      +                          INTERRUPT/mcal_external_interrupt.c: 89: {;MCAL_layer/INTERRUPT/mcal_external_interrupt.
      +                          c: 90:     INTCONbits.RBIF = 0;
  3155   001A9E  90F2               	bcf	242,0,c	;volatile
  3156   001AA0                     
  3157                           ;MCAL_layer/INTERRUPT/mcal_external_interrupt.c: 91:      if(src == 1 &&(RB6_high_handle
      +                          r)) RB6_high_handler();
  3158   001AA0  046A               	decf	RB6_ISR@src^0,w,c
  3159   001AA2  A4D8               	btfss	status,2,c
  3160   001AA4  EF56  F00D         	goto	i2u55_41
  3161   001AA8  EF58  F00D         	goto	i2u55_40
  3162   001AAC                     i2u55_41:
  3163   001AAC  EF63  F00D         	goto	i2l2738
  3164   001AB0                     i2u55_40:
  3165   001AB0  5022               	movf	_RB6_high_handler^0,w,c	;volatile
  3166   001AB2  1023               	iorwf	(_RB6_high_handler+1)^0,w,c	;volatile
  3167   001AB4  B4D8               	btfsc	status,2,c
  3168   001AB6  EF5F  F00D         	goto	i2u56_41
  3169   001ABA  EF61  F00D         	goto	i2u56_40
  3170   001ABE                     i2u56_41:
  3171   001ABE  EF63  F00D         	goto	i2l2738
  3172   001AC2                     i2u56_40:
  3173   001AC2  EF63  F00D         	goto	i2l993
  3174   001AC6                     i2l2738:
  3175   001AC6                     i2l993:
  3176   001AC6  0012               	return		;funcret
  3177   001AC8                     __end_of_RB6_ISR:
  3178                           	callstack 0
  3179                           
  3180 ;; *************** function _RB5_ISR *****************
  3181 ;; Defined at:
  3182 ;;		line 82 in file "MCAL_layer/INTERRUPT/mcal_external_interrupt.c"
  3183 ;; Parameters:    Size  Location     Type
  3184 ;;  src             1    wreg     unsigned char 
  3185 ;; Auto vars:     Size  Location     Type
  3186 ;;  src             1    0[COMRAM] unsigned char 
  3187 ;; Return value:  Size  Location     Type
  3188 ;;                  1    wreg      void 
  3189 ;; Registers used:
  3190 ;;		wreg, status,2, status,0
  3191 ;; Tracked objects:
  3192 ;;		On entry : 0/0
  3193 ;;		On exit  : 0/0
  3194 ;;		Unchanged: 0/0
  3195 ;; Data sizes:     COMRAM   BANK0   BANK1   BANK2   BANK3   BANK4   BANK5   BANK6   BANK7   BANK8   BANK9  BANK10  BANK1
      +1  BANK12  BANK13  BANK14  BANK15
  3196 ;;      Params:         0       0       0       0       0       0       0       0       0       0       0       0       
      +0       0       0       0       0
  3197 ;;      Locals:         1       0       0       0       0       0       0       0       0       0       0       0       
      +0       0       0       0       0
  3198 ;;      Temps:          0       0       0       0       0       0       0       0       0       0       0       0       
      +0       0       0       0       0
  3199 ;;      Totals:         1       0       0       0       0       0       0       0       0       0       0       0       
      +0       0       0       0       0
  3200 ;;Total ram usage:        1 bytes
  3201 ;; Hardware stack levels used: 1
  3202 ;; This function calls:
  3203 ;;		Nothing
  3204 ;; This function is called by:
  3205 ;;		_interrupt_manger
  3206 ;; This function uses a non-reentrant model
  3207 ;;
  3208                           
  3209                           	psect	text24
  3210   001AC8                     __ptext24:
  3211                           	callstack 0
  3212   001AC8                     _RB5_ISR:
  3213                           	callstack 25
  3214                           
  3215                           ;incstack = 0
  3216                           ;RB5_ISR@src stored from wreg
  3217   001AC8  6E6A               	movwf	RB5_ISR@src^0,c
  3218   001ACA                     
  3219                           ;MCAL_layer/INTERRUPT/mcal_external_interrupt.c: 82: void RB5_ISR(uint8 src);MCAL_layer/
      +                          INTERRUPT/mcal_external_interrupt.c: 83: {;MCAL_layer/INTERRUPT/mcal_external_interrupt.
      +                          c: 84:     INTCONbits.RBIF = 0;
  3220   001ACA  90F2               	bcf	242,0,c	;volatile
  3221   001ACC                     
  3222                           ;MCAL_layer/INTERRUPT/mcal_external_interrupt.c: 85:      if(src == 1 &&(RB5_high_handle
      +                          r)) RB5_high_handler();
  3223   001ACC  046A               	decf	RB5_ISR@src^0,w,c
  3224   001ACE  A4D8               	btfss	status,2,c
  3225   001AD0  EF6C  F00D         	goto	i2u53_41
  3226   001AD4  EF6E  F00D         	goto	i2u53_40
  3227   001AD8                     i2u53_41:
  3228   001AD8  EF79  F00D         	goto	i2l2726
  3229   001ADC                     i2u53_40:
  3230   001ADC  5026               	movf	_RB5_high_handler^0,w,c	;volatile
  3231   001ADE  1027               	iorwf	(_RB5_high_handler+1)^0,w,c	;volatile
  3232   001AE0  B4D8               	btfsc	status,2,c
  3233   001AE2  EF75  F00D         	goto	i2u54_41
  3234   001AE6  EF77  F00D         	goto	i2u54_40
  3235   001AEA                     i2u54_41:
  3236   001AEA  EF79  F00D         	goto	i2l2726
  3237   001AEE                     i2u54_40:
  3238   001AEE  EF79  F00D         	goto	i2l987
  3239   001AF2                     i2l2726:
  3240   001AF2                     i2l987:
  3241   001AF2  0012               	return		;funcret
  3242   001AF4                     __end_of_RB5_ISR:
  3243                           	callstack 0
  3244                           
  3245 ;; *************** function _RB4_ISR *****************
  3246 ;; Defined at:
  3247 ;;		line 76 in file "MCAL_layer/INTERRUPT/mcal_external_interrupt.c"
  3248 ;; Parameters:    Size  Location     Type
  3249 ;;  src             1    wreg     unsigned char 
  3250 ;; Auto vars:     Size  Location     Type
  3251 ;;  src             1    0[COMRAM] unsigned char 
  3252 ;; Return value:  Size  Location     Type
  3253 ;;                  1    wreg      void 
  3254 ;; Registers used:
  3255 ;;		wreg, status,2, status,0
  3256 ;; Tracked objects:
  3257 ;;		On entry : 0/0
  3258 ;;		On exit  : 0/0
  3259 ;;		Unchanged: 0/0
  3260 ;; Data sizes:     COMRAM   BANK0   BANK1   BANK2   BANK3   BANK4   BANK5   BANK6   BANK7   BANK8   BANK9  BANK10  BANK1
      +1  BANK12  BANK13  BANK14  BANK15
  3261 ;;      Params:         0       0       0       0       0       0       0       0       0       0       0       0       
      +0       0       0       0       0
  3262 ;;      Locals:         1       0       0       0       0       0       0       0       0       0       0       0       
      +0       0       0       0       0
  3263 ;;      Temps:          0       0       0       0       0       0       0       0       0       0       0       0       
      +0       0       0       0       0
  3264 ;;      Totals:         1       0       0       0       0       0       0       0       0       0       0       0       
      +0       0       0       0       0
  3265 ;;Total ram usage:        1 bytes
  3266 ;; Hardware stack levels used: 1
  3267 ;; This function calls:
  3268 ;;		Nothing
  3269 ;; This function is called by:
  3270 ;;		_interrupt_manger
  3271 ;; This function uses a non-reentrant model
  3272 ;;
  3273                           
  3274                           	psect	text25
  3275   001AF4                     __ptext25:
  3276                           	callstack 0
  3277   001AF4                     _RB4_ISR:
  3278                           	callstack 25
  3279                           
  3280                           ;incstack = 0
  3281                           ;RB4_ISR@src stored from wreg
  3282   001AF4  6E6A               	movwf	RB4_ISR@src^0,c
  3283   001AF6                     
  3284                           ;MCAL_layer/INTERRUPT/mcal_external_interrupt.c: 76: void RB4_ISR(uint8 src);MCAL_layer/
      +                          INTERRUPT/mcal_external_interrupt.c: 77: {;MCAL_layer/INTERRUPT/mcal_external_interrupt.
      +                          c: 78:     INTCONbits.RBIF = 0;
  3285   001AF6  90F2               	bcf	242,0,c	;volatile
  3286   001AF8                     
  3287                           ;MCAL_layer/INTERRUPT/mcal_external_interrupt.c: 79:     if(src == 1 && (RB4_high_handle
      +                          r)) RB4_high_handler();
  3288   001AF8  046A               	decf	RB4_ISR@src^0,w,c
  3289   001AFA  A4D8               	btfss	status,2,c
  3290   001AFC  EF82  F00D         	goto	i2u51_41
  3291   001B00  EF84  F00D         	goto	i2u51_40
  3292   001B04                     i2u51_41:
  3293   001B04  EF8F  F00D         	goto	i2l2714
  3294   001B08                     i2u51_40:
  3295   001B08  502A               	movf	_RB4_high_handler^0,w,c	;volatile
  3296   001B0A  102B               	iorwf	(_RB4_high_handler+1)^0,w,c	;volatile
  3297   001B0C  B4D8               	btfsc	status,2,c
  3298   001B0E  EF8B  F00D         	goto	i2u52_41
  3299   001B12  EF8D  F00D         	goto	i2u52_40
  3300   001B16                     i2u52_41:
  3301   001B16  EF8F  F00D         	goto	i2l2714
  3302   001B1A                     i2u52_40:
  3303   001B1A  EF8F  F00D         	goto	i2l981
  3304   001B1E                     i2l2714:
  3305   001B1E                     i2l981:
  3306   001B1E  0012               	return		;funcret
  3307   001B20                     __end_of_RB4_ISR:
  3308                           	callstack 0
  3309                           
  3310 ;; *************** function _INT2_ISR *****************
  3311 ;; Defined at:
  3312 ;;		line 68 in file "MCAL_layer/INTERRUPT/mcal_external_interrupt.c"
  3313 ;; Parameters:    Size  Location     Type
  3314 ;;		None
  3315 ;; Auto vars:     Size  Location     Type
  3316 ;;		None
  3317 ;; Return value:  Size  Location     Type
  3318 ;;                  1    wreg      void 
  3319 ;; Registers used:
  3320 ;;		None
  3321 ;; Tracked objects:
  3322 ;;		On entry : 0/0
  3323 ;;		On exit  : 0/0
  3324 ;;		Unchanged: 0/0
  3325 ;; Data sizes:     COMRAM   BANK0   BANK1   BANK2   BANK3   BANK4   BANK5   BANK6   BANK7   BANK8   BANK9  BANK10  BANK1
      +1  BANK12  BANK13  BANK14  BANK15
  3326 ;;      Params:         0       0       0       0       0       0       0       0       0       0       0       0       
      +0       0       0       0       0
  3327 ;;      Locals:         0       0       0       0       0       0       0       0       0       0       0       0       
      +0       0       0       0       0
  3328 ;;      Temps:          0       0       0       0       0       0       0       0       0       0       0       0       
      +0       0       0       0       0
  3329 ;;      Totals:         0       0       0       0       0       0       0       0       0       0       0       0       
      +0       0       0       0       0
  3330 ;;Total ram usage:        0 bytes
  3331 ;; Hardware stack levels used: 1
  3332 ;; This function calls:
  3333 ;;		Nothing
  3334 ;; This function is called by:
  3335 ;;		_interrupt_manger
  3336 ;; This function uses a non-reentrant model
  3337 ;;
  3338                           
  3339                           	psect	text26
  3340   001B92                     __ptext26:
  3341                           	callstack 0
  3342   001B92                     _INT2_ISR:
  3343                           	callstack 25
  3344   001B92                     
  3345                           ;MCAL_layer/INTERRUPT/mcal_external_interrupt.c: 70:     INTCON3bits.INT2IF = 0;
  3346   001B92  92F0               	bcf	240,1,c	;volatile
  3347   001B94  0012               	return		;funcret
  3348   001B96                     __end_of_INT2_ISR:
  3349                           	callstack 0
  3350                           
  3351 ;; *************** function _INT1_ISR *****************
  3352 ;; Defined at:
  3353 ;;		line 59 in file "MCAL_layer/INTERRUPT/mcal_external_interrupt.c"
  3354 ;; Parameters:    Size  Location     Type
  3355 ;;		None
  3356 ;; Auto vars:     Size  Location     Type
  3357 ;;		None
  3358 ;; Return value:  Size  Location     Type
  3359 ;;                  1    wreg      void 
  3360 ;; Registers used:
  3361 ;;		None
  3362 ;; Tracked objects:
  3363 ;;		On entry : 0/0
  3364 ;;		On exit  : 0/0
  3365 ;;		Unchanged: 0/0
  3366 ;; Data sizes:     COMRAM   BANK0   BANK1   BANK2   BANK3   BANK4   BANK5   BANK6   BANK7   BANK8   BANK9  BANK10  BANK1
      +1  BANK12  BANK13  BANK14  BANK15
  3367 ;;      Params:         0       0       0       0       0       0       0       0       0       0       0       0       
      +0       0       0       0       0
  3368 ;;      Locals:         0       0       0       0       0       0       0       0       0       0       0       0       
      +0       0       0       0       0
  3369 ;;      Temps:          0       0       0       0       0       0       0       0       0       0       0       0       
      +0       0       0       0       0
  3370 ;;      Totals:         0       0       0       0       0       0       0       0       0       0       0       0       
      +0       0       0       0       0
  3371 ;;Total ram usage:        0 bytes
  3372 ;; Hardware stack levels used: 1
  3373 ;; This function calls:
  3374 ;;		Nothing
  3375 ;; This function is called by:
  3376 ;;		_interrupt_manger
  3377 ;; This function uses a non-reentrant model
  3378 ;;
  3379                           
  3380                           	psect	text27
  3381   001B96                     __ptext27:
  3382                           	callstack 0
  3383   001B96                     _INT1_ISR:
  3384                           	callstack 25
  3385   001B96                     
  3386                           ;MCAL_layer/INTERRUPT/mcal_external_interrupt.c: 61:     INTCON3bits.INT1IF = 0;
  3387   001B96  90F0               	bcf	240,0,c	;volatile
  3388   001B98  0012               	return		;funcret
  3389   001B9A                     __end_of_INT1_ISR:
  3390                           	callstack 0
  3391                           
  3392 ;; *************** function _INT0_ISR *****************
  3393 ;; Defined at:
  3394 ;;		line 50 in file "MCAL_layer/INTERRUPT/mcal_external_interrupt.c"
  3395 ;; Parameters:    Size  Location     Type
  3396 ;;		None
  3397 ;; Auto vars:     Size  Location     Type
  3398 ;;		None
  3399 ;; Return value:  Size  Location     Type
  3400 ;;                  1    wreg      void 
  3401 ;; Registers used:
  3402 ;;		None
  3403 ;; Tracked objects:
  3404 ;;		On entry : 0/0
  3405 ;;		On exit  : 0/0
  3406 ;;		Unchanged: 0/0
  3407 ;; Data sizes:     COMRAM   BANK0   BANK1   BANK2   BANK3   BANK4   BANK5   BANK6   BANK7   BANK8   BANK9  BANK10  BANK1
      +1  BANK12  BANK13  BANK14  BANK15
  3408 ;;      Params:         0       0       0       0       0       0       0       0       0       0       0       0       
      +0       0       0       0       0
  3409 ;;      Locals:         0       0       0       0       0       0       0       0       0       0       0       0       
      +0       0       0       0       0
  3410 ;;      Temps:          0       0       0       0       0       0       0       0       0       0       0       0       
      +0       0       0       0       0
  3411 ;;      Totals:         0       0       0       0       0       0       0       0       0       0       0       0       
      +0       0       0       0       0
  3412 ;;Total ram usage:        0 bytes
  3413 ;; Hardware stack levels used: 1
  3414 ;; This function calls:
  3415 ;;		Nothing
  3416 ;; This function is called by:
  3417 ;;		_interrupt_manger
  3418 ;; This function uses a non-reentrant model
  3419 ;;
  3420                           
  3421                           	psect	text28
  3422   001B9A                     __ptext28:
  3423                           	callstack 0
  3424   001B9A                     _INT0_ISR:
  3425                           	callstack 25
  3426   001B9A                     
  3427                           ;MCAL_layer/INTERRUPT/mcal_external_interrupt.c: 52:     INTCONbits.INT0IF = 0;
  3428   001B9A  92F2               	bcf	242,1,c	;volatile
  3429   001B9C  0012               	return		;funcret
  3430   001B9E                     __end_of_INT0_ISR:
  3431                           	callstack 0
  3432                           
  3433 ;; *************** function _I2C_ISR *****************
  3434 ;; Defined at:
  3435 ;;		line 295 in file "MCAL_layer/MSSP/I2C/MCAL_I2C.c"
  3436 ;; Parameters:    Size  Location     Type
  3437 ;;		None
  3438 ;; Auto vars:     Size  Location     Type
  3439 ;;		None
  3440 ;; Return value:  Size  Location     Type
  3441 ;;                  1    wreg      void 
  3442 ;; Registers used:
  3443 ;;		None
  3444 ;; Tracked objects:
  3445 ;;		On entry : 0/0
  3446 ;;		On exit  : 0/0
  3447 ;;		Unchanged: 0/0
  3448 ;; Data sizes:     COMRAM   BANK0   BANK1   BANK2   BANK3   BANK4   BANK5   BANK6   BANK7   BANK8   BANK9  BANK10  BANK1
      +1  BANK12  BANK13  BANK14  BANK15
  3449 ;;      Params:         0       0       0       0       0       0       0       0       0       0       0       0       
      +0       0       0       0       0
  3450 ;;      Locals:         0       0       0       0       0       0       0       0       0       0       0       0       
      +0       0       0       0       0
  3451 ;;      Temps:          0       0       0       0       0       0       0       0       0       0       0       0       
      +0       0       0       0       0
  3452 ;;      Totals:         0       0       0       0       0       0       0       0       0       0       0       0       
      +0       0       0       0       0
  3453 ;;Total ram usage:        0 bytes
  3454 ;; Hardware stack levels used: 1
  3455 ;; This function calls:
  3456 ;;		Nothing
  3457 ;; This function is called by:
  3458 ;;		_interrupt_manger
  3459 ;; This function uses a non-reentrant model
  3460 ;;
  3461                           
  3462                           	psect	text29
  3463   001B9E                     __ptext29:
  3464                           	callstack 0
  3465   001B9E                     _I2C_ISR:
  3466                           	callstack 25
  3467   001B9E                     
  3468                           ;MCAL_layer/MSSP/I2C/MCAL_I2C.c: 296:     PIR1bits.SSPIF = 0;
  3469   001B9E  969E               	bcf	158,3,c	;volatile
  3470   001BA0  0012               	return		;funcret
  3471   001BA2                     __end_of_I2C_ISR:
  3472                           	callstack 0
  3473                           
  3474 ;; *************** function _I2C_BUS_COL_ISR *****************
  3475 ;; Defined at:
  3476 ;;		line 300 in file "MCAL_layer/MSSP/I2C/MCAL_I2C.c"
  3477 ;; Parameters:    Size  Location     Type
  3478 ;;		None
  3479 ;; Auto vars:     Size  Location     Type
  3480 ;;		None
  3481 ;; Return value:  Size  Location     Type
  3482 ;;                  1    wreg      void 
  3483 ;; Registers used:
  3484 ;;		None
  3485 ;; Tracked objects:
  3486 ;;		On entry : 0/0
  3487 ;;		On exit  : 0/0
  3488 ;;		Unchanged: 0/0
  3489 ;; Data sizes:     COMRAM   BANK0   BANK1   BANK2   BANK3   BANK4   BANK5   BANK6   BANK7   BANK8   BANK9  BANK10  BANK1
      +1  BANK12  BANK13  BANK14  BANK15
  3490 ;;      Params:         0       0       0       0       0       0       0       0       0       0       0       0       
      +0       0       0       0       0
  3491 ;;      Locals:         0       0       0       0       0       0       0       0       0       0       0       0       
      +0       0       0       0       0
  3492 ;;      Temps:          0       0       0       0       0       0       0       0       0       0       0       0       
      +0       0       0       0       0
  3493 ;;      Totals:         0       0       0       0       0       0       0       0       0       0       0       0       
      +0       0       0       0       0
  3494 ;;Total ram usage:        0 bytes
  3495 ;; Hardware stack levels used: 1
  3496 ;; This function calls:
  3497 ;;		Nothing
  3498 ;; This function is called by:
  3499 ;;		_interrupt_manger
  3500 ;; This function uses a non-reentrant model
  3501 ;;
  3502                           
  3503                           	psect	text30
  3504   001BA2                     __ptext30:
  3505                           	callstack 0
  3506   001BA2                     _I2C_BUS_COL_ISR:
  3507                           	callstack 25
  3508   001BA2                     
  3509                           ;MCAL_layer/MSSP/I2C/MCAL_I2C.c: 301:     PIR2bits.BCLIF = 0;
  3510   001BA2  96A1               	bcf	161,3,c	;volatile
  3511   001BA4  0012               	return		;funcret
  3512   001BA6                     __end_of_I2C_BUS_COL_ISR:
  3513                           	callstack 0
  3514                           
  3515 ;; *************** function _CCP2_ISR *****************
  3516 ;; Defined at:
  3517 ;;		line 577 in file "MCAL_layer/CPPx/hal_cppx.c"
  3518 ;; Parameters:    Size  Location     Type
  3519 ;;		None
  3520 ;; Auto vars:     Size  Location     Type
  3521 ;;		None
  3522 ;; Return value:  Size  Location     Type
  3523 ;;                  1    wreg      void 
  3524 ;; Registers used:
  3525 ;;		None
  3526 ;; Tracked objects:
  3527 ;;		On entry : 0/0
  3528 ;;		On exit  : 0/0
  3529 ;;		Unchanged: 0/0
  3530 ;; Data sizes:     COMRAM   BANK0   BANK1   BANK2   BANK3   BANK4   BANK5   BANK6   BANK7   BANK8   BANK9  BANK10  BANK1
      +1  BANK12  BANK13  BANK14  BANK15
  3531 ;;      Params:         0       0       0       0       0       0       0       0       0       0       0       0       
      +0       0       0       0       0
  3532 ;;      Locals:         0       0       0       0       0       0       0       0       0       0       0       0       
      +0       0       0       0       0
  3533 ;;      Temps:          0       0       0       0       0       0       0       0       0       0       0       0       
      +0       0       0       0       0
  3534 ;;      Totals:         0       0       0       0       0       0       0       0       0       0       0       0       
      +0       0       0       0       0
  3535 ;;Total ram usage:        0 bytes
  3536 ;; Hardware stack levels used: 1
  3537 ;; This function calls:
  3538 ;;		Nothing
  3539 ;; This function is called by:
  3540 ;;		_interrupt_manger
  3541 ;; This function uses a non-reentrant model
  3542 ;;
  3543                           
  3544                           	psect	text31
  3545   001BA6                     __ptext31:
  3546                           	callstack 0
  3547   001BA6                     _CCP2_ISR:
  3548                           	callstack 25
  3549   001BA6                     
  3550                           ;MCAL_layer/CPPx/hal_cppx.c: 579:        PIR2bits.CCP2IF = 0;
  3551   001BA6  90A1               	bcf	161,0,c	;volatile
  3552   001BA8  0012               	return		;funcret
  3553   001BAA                     __end_of_CCP2_ISR:
  3554                           	callstack 0
  3555                           
  3556 ;; *************** function _CCP1_ISR *****************
  3557 ;; Defined at:
  3558 ;;		line 570 in file "MCAL_layer/CPPx/hal_cppx.c"
  3559 ;; Parameters:    Size  Location     Type
  3560 ;;		None
  3561 ;; Auto vars:     Size  Location     Type
  3562 ;;		None
  3563 ;; Return value:  Size  Location     Type
  3564 ;;                  1    wreg      void 
  3565 ;; Registers used:
  3566 ;;		None
  3567 ;; Tracked objects:
  3568 ;;		On entry : 0/0
  3569 ;;		On exit  : 0/0
  3570 ;;		Unchanged: 0/0
  3571 ;; Data sizes:     COMRAM   BANK0   BANK1   BANK2   BANK3   BANK4   BANK5   BANK6   BANK7   BANK8   BANK9  BANK10  BANK1
      +1  BANK12  BANK13  BANK14  BANK15
  3572 ;;      Params:         0       0       0       0       0       0       0       0       0       0       0       0       
      +0       0       0       0       0
  3573 ;;      Locals:         0       0       0       0       0       0       0       0       0       0       0       0       
      +0       0       0       0       0
  3574 ;;      Temps:          0       0       0       0       0       0       0       0       0       0       0       0       
      +0       0       0       0       0
  3575 ;;      Totals:         0       0       0       0       0       0       0       0       0       0       0       0       
      +0       0       0       0       0
  3576 ;;Total ram usage:        0 bytes
  3577 ;; Hardware stack levels used: 1
  3578 ;; This function calls:
  3579 ;;		Nothing
  3580 ;; This function is called by:
  3581 ;;		_interrupt_manger
  3582 ;; This function uses a non-reentrant model
  3583 ;;
  3584                           
  3585                           	psect	text32
  3586   001BAA                     __ptext32:
  3587                           	callstack 0
  3588   001BAA                     _CCP1_ISR:
  3589                           	callstack 25
  3590   001BAA                     
  3591                           ;MCAL_layer/CPPx/hal_cppx.c: 572:      PIR1bits.CCP1IF = 0;
  3592   001BAA  949E               	bcf	158,2,c	;volatile
  3593   001BAC  0012               	return		;funcret
  3594   001BAE                     __end_of_CCP1_ISR:
  3595                           	callstack 0
  3596                           
  3597 ;; *************** function _ADC_ISR *****************
  3598 ;; Defined at:
  3599 ;;		line 246 in file "MCAL_layer/ADC/mcal_adc.c"
  3600 ;; Parameters:    Size  Location     Type
  3601 ;;		None
  3602 ;; Auto vars:     Size  Location     Type
  3603 ;;		None
  3604 ;; Return value:  Size  Location     Type
  3605 ;;                  1    wreg      void 
  3606 ;; Registers used:
  3607 ;;		None
  3608 ;; Tracked objects:
  3609 ;;		On entry : 0/0
  3610 ;;		On exit  : 0/0
  3611 ;;		Unchanged: 0/0
  3612 ;; Data sizes:     COMRAM   BANK0   BANK1   BANK2   BANK3   BANK4   BANK5   BANK6   BANK7   BANK8   BANK9  BANK10  BANK1
      +1  BANK12  BANK13  BANK14  BANK15
  3613 ;;      Params:         0       0       0       0       0       0       0       0       0       0       0       0       
      +0       0       0       0       0
  3614 ;;      Locals:         0       0       0       0       0       0       0       0       0       0       0       0       
      +0       0       0       0       0
  3615 ;;      Temps:          0       0       0       0       0       0       0       0       0       0       0       0       
      +0       0       0       0       0
  3616 ;;      Totals:         0       0       0       0       0       0       0       0       0       0       0       0       
      +0       0       0       0       0
  3617 ;;Total ram usage:        0 bytes
  3618 ;; Hardware stack levels used: 1
  3619 ;; This function calls:
  3620 ;;		Nothing
  3621 ;; This function is called by:
  3622 ;;		_interrupt_manger
  3623 ;; This function uses a non-reentrant model
  3624 ;;
  3625                           
  3626                           	psect	text33
  3627   001BAE                     __ptext33:
  3628                           	callstack 0
  3629   001BAE                     _ADC_ISR:
  3630                           	callstack 25
  3631   001BAE                     
  3632                           ;MCAL_layer/ADC/mcal_adc.c: 247:     PIR1bits.ADIF = 0;
  3633   001BAE  9C9E               	bcf	158,6,c	;volatile
  3634   001BB0  0012               	return		;funcret
  3635   001BB2                     __end_of_ADC_ISR:
  3636                           	callstack 0
  3637                           
  3638                           	psect	rparam
  3639   000000                     
  3640                           	psect	temp
  3641   00007C                     btemp:
  3642                           	callstack 0
  3643   00007C                     	ds	1
  3644   000000                     int$flags	set	btemp
  3645   000000                     wtemp8	set	btemp+1
  3646   000000                     ttemp5	set	btemp+1
  3647   000000                     ttemp6	set	btemp+4
  3648   000000                     ttemp7	set	btemp+8
  3649                           
  3650                           	psect	config
  3651                           
  3652                           ; Padding undefined space
  3653   300000                     	org	3145728
  3654   300000  FF                 	db	255
  3655                           
  3656                           ;Config register CONFIG1H @ 0x300001
  3657                           ;	Oscillator Selection bits
  3658                           ;	OSC = HS, HS oscillator
  3659                           ;	Fail-Safe Clock Monitor Enable bit
  3660                           ;	FCMEN = OFF, Fail-Safe Clock Monitor disabled
  3661                           ;	Internal/External Oscillator Switchover bit
  3662                           ;	IESO = OFF, Oscillator Switchover mode disabled
  3663   300001                     	org	3145729
  3664   300001  02                 	db	2
  3665                           
  3666                           ;Config register CONFIG2L @ 0x300002
  3667                           ;	Power-up Timer Enable bit
  3668                           ;	PWRT = OFF, PWRT disabled
  3669                           ;	Brown-out Reset Enable bits
  3670                           ;	BOREN = OFF, Brown-out Reset disabled in hardware and software
  3671                           ;	Brown Out Reset Voltage bits
  3672                           ;	BORV = 1, 
  3673   300002                     	org	3145730
  3674   300002  09                 	db	9
  3675                           
  3676                           ;Config register CONFIG2H @ 0x300003
  3677                           ;	Watchdog Timer Enable bit
  3678                           ;	WDT = OFF, WDT disabled (control is placed on the SWDTEN bit)
  3679                           ;	Watchdog Timer Postscale Select bits
  3680                           ;	WDTPS = 32768, 1:32768
  3681   300003                     	org	3145731
  3682   300003  1E                 	db	30
  3683                           
  3684                           ; Padding undefined space
  3685   300004                     	org	3145732
  3686   300004  FF                 	db	255
  3687                           
  3688                           ;Config register CONFIG3H @ 0x300005
  3689                           ;	CCP2 MUX bit
  3690                           ;	CCP2MX = PORTC, CCP2 input/output is multiplexed with RC1
  3691                           ;	PORTB A/D Enable bit
  3692                           ;	PBADEN = OFF, PORTB<4:0> pins are configured as digital I/O on Reset
  3693                           ;	Low-Power Timer1 Oscillator Enable bit
  3694                           ;	LPT1OSC = OFF, Timer1 configured for higher power operation
  3695                           ;	MCLR Pin Enable bit
  3696                           ;	MCLRE = ON, MCLR pin enabled; RE3 input pin disabled
  3697   300005                     	org	3145733
  3698   300005  81                 	db	129
  3699                           
  3700                           ;Config register CONFIG4L @ 0x300006
  3701                           ;	Stack Full/Underflow Reset Enable bit
  3702                           ;	STVREN = ON, Stack full/underflow will cause Reset
  3703                           ;	Single-Supply ICSP Enable bit
  3704                           ;	LVP = OFF, Single-Supply ICSP disabled
  3705                           ;	Extended Instruction Set Enable bit
  3706                           ;	XINST = OFF, Instruction set extension and Indexed Addressing mode disabled (Legacy mo
      +                          de)
  3707                           ;	Background Debugger Enable bit
  3708                           ;	DEBUG = 0x1, unprogrammed default
  3709   300006                     	org	3145734
  3710   300006  81                 	db	129
  3711                           
  3712                           ; Padding undefined space
  3713   300007                     	org	3145735
  3714   300007  FF                 	db	255
  3715                           
  3716                           ;Config register CONFIG5L @ 0x300008
  3717                           ;	Code Protection bit
  3718                           ;	CP0 = OFF, Block 0 (000800-003FFFh) not code-protected
  3719                           ;	Code Protection bit
  3720                           ;	CP1 = OFF, Block 1 (004000-007FFFh) not code-protected
  3721                           ;	Code Protection bit
  3722                           ;	CP2 = OFF, Block 2 (008000-00BFFFh) not code-protected
  3723                           ;	Code Protection bit
  3724                           ;	CP3 = OFF, Block 3 (00C000-00FFFFh) not code-protected
  3725   300008                     	org	3145736
  3726   300008  0F                 	db	15
  3727                           
  3728                           ;Config register CONFIG5H @ 0x300009
  3729                           ;	Boot Block Code Protection bit
  3730                           ;	CPB = OFF, Boot block (000000-0007FFh) not code-protected
  3731                           ;	Data EEPROM Code Protection bit
  3732                           ;	CPD = OFF, Data EEPROM not code-protected
  3733   300009                     	org	3145737
  3734   300009  C0                 	db	192
  3735                           
  3736                           ;Config register CONFIG6L @ 0x30000A
  3737                           ;	Write Protection bit
  3738                           ;	WRT0 = OFF, Block 0 (000800-003FFFh) not write-protected
  3739                           ;	Write Protection bit
  3740                           ;	WRT1 = OFF, Block 1 (004000-007FFFh) not write-protected
  3741                           ;	Write Protection bit
  3742                           ;	WRT2 = OFF, Block 2 (008000-00BFFFh) not write-protected
  3743                           ;	Write Protection bit
  3744                           ;	WRT3 = OFF, Block 3 (00C000-00FFFFh) not write-protected
  3745   30000A                     	org	3145738
  3746   30000A  0F                 	db	15
  3747                           
  3748                           ;Config register CONFIG6H @ 0x30000B
  3749                           ;	Configuration Register Write Protection bit
  3750                           ;	WRTC = OFF, Configuration registers (300000-3000FFh) not write-protected
  3751                           ;	Boot Block Write Protection bit
  3752                           ;	WRTB = OFF, Boot Block (000000-0007FFh) not write-protected
  3753                           ;	Data EEPROM Write Protection bit
  3754                           ;	WRTD = OFF, Data EEPROM not write-protected
  3755   30000B                     	org	3145739
  3756   30000B  E0                 	db	224
  3757                           
  3758                           ;Config register CONFIG7L @ 0x30000C
  3759                           ;	Table Read Protection bit
  3760                           ;	EBTR0 = OFF, Block 0 (000800-003FFFh) not protected from table reads executed in other
      +                           blocks
  3761                           ;	Table Read Protection bit
  3762                           ;	EBTR1 = OFF, Block 1 (004000-007FFFh) not protected from table reads executed in other
      +                           blocks
  3763                           ;	Table Read Protection bit
  3764                           ;	EBTR2 = OFF, Block 2 (008000-00BFFFh) not protected from table reads executed in other
      +                           blocks
  3765                           ;	Table Read Protection bit
  3766                           ;	EBTR3 = OFF, Block 3 (00C000-00FFFFh) not protected from table reads executed in other
      +                           blocks
  3767   30000C                     	org	3145740
  3768   30000C  0F                 	db	15
  3769                           
  3770                           ;Config register CONFIG7H @ 0x30000D
  3771                           ;	Boot Block Table Read Protection bit
  3772                           ;	EBTRB = OFF, Boot Block (000000-0007FFh) not protected from table reads executed in ot
      +                          her blocks
  3773   30000D                     	org	3145741
  3774   30000D  40                 	db	64
  3775                           tosu	equ	0xFFF
  3776                           tosh	equ	0xFFE
  3777                           tosl	equ	0xFFD
  3778                           stkptr	equ	0xFFC
  3779                           pclatu	equ	0xFFB
  3780                           pclath	equ	0xFFA
  3781                           pcl	equ	0xFF9
  3782                           tblptru	equ	0xFF8
  3783                           tblptrh	equ	0xFF7
  3784                           tblptrl	equ	0xFF6
  3785                           tablat	equ	0xFF5
  3786                           prodh	equ	0xFF4
  3787                           prodl	equ	0xFF3
  3788                           indf0	equ	0xFEF
  3789                           postinc0	equ	0xFEE
  3790                           postdec0	equ	0xFED
  3791                           preinc0	equ	0xFEC
  3792                           plusw0	equ	0xFEB
  3793                           fsr0h	equ	0xFEA
  3794                           fsr0l	equ	0xFE9
  3795                           wreg	equ	0xFE8
  3796                           indf1	equ	0xFE7
  3797                           postinc1	equ	0xFE6
  3798                           postdec1	equ	0xFE5
  3799                           preinc1	equ	0xFE4
  3800                           plusw1	equ	0xFE3
  3801                           fsr1h	equ	0xFE2
  3802                           fsr1l	equ	0xFE1
  3803                           bsr	equ	0xFE0
  3804                           indf2	equ	0xFDF
  3805                           postinc2	equ	0xFDE
  3806                           postdec2	equ	0xFDD
  3807                           preinc2	equ	0xFDC
  3808                           plusw2	equ	0xFDB
  3809                           fsr2h	equ	0xFDA
  3810                           fsr2l	equ	0xFD9
  3811                           status	equ	0xFD8

Data Sizes:
    Strings     3
    Constant    0
    Data        117
    BSS         72
    Persistent  0
    Stack       0

Auto Spaces:
    Space          Size  Autos    Used
    COMRAM          126     18     123
    BANK0           128      0      84
    BANK1           256      0       0
    BANK2           256      0       0
    BANK3           256      0       0
    BANK4           256      0       0
    BANK5           256      0       0
    BANK6           256      0       0
    BANK7           256      0       0
    BANK8           256      0       0
    BANK9           256      0       0
    BANK10          256      0       0
    BANK11          256      0       0
    BANK12          256      0       0
    BANK13          256      0       0
    BANK14          256      0       0
    BANK15          128      0       0

Pointer List with Targets:

    vfprintf$2	PTR PTR void  size(2) Largest target is 2
		 -> sprintf@ap(COMRAM[2]), 

    vfprintf$1	PTR const unsigned char  size(2) Largest target is 3
		 -> STR_2(CODE[3]), STR_1(CODE[3]), 

    vfprintf$0	PTR struct _IO_FILE size(2) Largest target is 12
		 -> sprintf@f(COMRAM[12]), 

    S4581$source	PTR const unsigned char  size(2) Largest target is 0

    f...source	PTR const unsigned char  size(2) Largest target is 0

    S4581$buffer	PTR unsigned char  size(2) Largest target is 0

    f...buffer	PTR unsigned char  size(2) Largest target is 0

    I2C_obj.master_obj.Bus_Col_Handler	PTR FTN()void  size(2) Largest target is 1
		 -> NULL(), 

    I2C_obj.I2C_Default_Handler	PTR FTN()void  size(2) Largest target is 1
		 -> NULL(), 

    Timer3_select_mode@_timer3.Timer3_interrupt_handler	PTR FTN()void  size(2) Largest target is 0

    _timer3_interrupr_handler	volatile PTR FTN()void  size(2) Largest target is 1
		 -> NULL(), 

    S3917$Timer3_interrupt_handler	PTR FTN()void  size(2) Largest target is 0

    mcal_Timer3_initialize@_timer3.Timer3_interrupt_handler	PTR FTN()void  size(2) Largest target is 0

    timer2_interrupr_handler	volatile PTR FTN()void  size(2) Largest target is 1
		 -> NULL(), 

    S3793$timer2_interrupt_handler	PTR FTN()void  size(2) Largest target is 0

    mcal_Timer2_initialize@timer2.timer2_interrupt_handler	PTR FTN()void  size(2) Largest target is 0

    Timer1_select_mode@_timer1.timer1_handler	PTR FTN()void  size(2) Largest target is 0

    _timer1_interrupr_handler	volatile PTR FTN()void  size(2) Largest target is 1
		 -> NULL(), 

    S3592$timer1_handler	PTR FTN()void  size(2) Largest target is 0

    mcal_Timer1_initialize@_timer1.timer1_handler	PTR FTN()void  size(2) Largest target is 0

    timer0_prescaler_cnfg@timer0.timer0_handler	PTR FTN()void  size(2) Largest target is 0

    timer0_clock_src_edge@timer0.timer0_handler	PTR FTN()void  size(2) Largest target is 0

    timer0_select_mode@timer0.timer0_handler	PTR FTN()void  size(2) Largest target is 0

    timer0_set_size@timer0.timer0_handler	PTR FTN()void  size(2) Largest target is 0

    timer0_interrupt_handler	PTR FTN()void  size(2) Largest target is 1
		 -> NULL(), 

    S3410$timer0_handler	PTR FTN()void  size(2) Largest target is 0

    mcal_timer0_intialize@timer0.timer0_handler	PTR FTN()void  size(2) Largest target is 0

    I2C_Bus_Col_Interrupt_handler	PTR FTN()void  size(2) Largest target is 1
		 -> NULL(), 

    I2C_Interrupt_Cnfg@i2c_obj.master_obj.Bus_Col_Handler	PTR FTN()void  size(2) Largest target is 1
		 -> NULL(), 

    I2C_Interrupt_Cnfg@i2c_obj.I2C_Default_Handler	PTR FTN()void  size(2) Largest target is 1
		 -> NULL(), 

    I2C_default_Interrupt_handler	PTR FTN()void  size(2) Largest target is 1
		 -> NULL(), 

    I2C_Interrupt_Cnfg@i2c_obj	PTR const struct . size(2) Largest target is 11
		 -> I2C_obj(BANK0[11]), 

    I2C_Mode_Configuration@i2c_obj.master_obj.Bus_Col_Handler	PTR FTN()void  size(2) Largest target is 1
		 -> NULL(), 

    I2C_Mode_Configuration@i2c_obj.I2C_Default_Handler	PTR FTN()void  size(2) Largest target is 1
		 -> NULL(), 

    I2C_Mode_Configuration@i2c_obj	PTR const struct . size(2) Largest target is 11
		 -> I2C_obj(BANK0[11]), 

    I2C_Slave_Confg@i2c_obj.master_obj.Bus_Col_Handler	PTR FTN()void  size(2) Largest target is 1
		 -> NULL(), 

    I2C_Slave_Confg@i2c_obj.I2C_Default_Handler	PTR FTN()void  size(2) Largest target is 1
		 -> NULL(), 

    I2C_Slave_Confg@i2c_obj	PTR const struct . size(2) Largest target is 11
		 -> I2C_obj(BANK0[11]), 

    I2C_Master_Confg@i2c_obj.master_obj.Bus_Col_Handler	PTR FTN()void  size(2) Largest target is 1
		 -> NULL(), 

    I2C_Master_Confg@i2c_obj.I2C_Default_Handler	PTR FTN()void  size(2) Largest target is 1
		 -> NULL(), 

    I2C_Master_Confg@i2c_obj	PTR const struct . size(2) Largest target is 11
		 -> I2C_obj(BANK0[11]), 

    I2C_SlewRate_Confg@i2c_obj.master_obj.Bus_Col_Handler	PTR FTN()void  size(2) Largest target is 1
		 -> NULL(), 

    I2C_SlewRate_Confg@i2c_obj.I2C_Default_Handler	PTR FTN()void  size(2) Largest target is 1
		 -> NULL(), 

    I2C_SlewRate_Confg@i2c_obj	PTR const struct . size(2) Largest target is 11
		 -> I2C_obj(BANK0[11]), 

    S2952$Bus_Col_Handler	PTR FTN()void  size(2) Largest target is 1
		 -> NULL(), 

    I2C_SMBus_Confg@i2c_obj.master_obj.Bus_Col_Handler	PTR FTN()void  size(2) Largest target is 1
		 -> NULL(), 

    S2956$I2C_Default_Handler	PTR FTN()void  size(2) Largest target is 1
		 -> NULL(), 

    I2C_SMBus_Confg@i2c_obj.I2C_Default_Handler	PTR FTN()void  size(2) Largest target is 1
		 -> NULL(), 

    I2C_SMBus_Confg@i2c_obj	PTR const struct . size(2) Largest target is 11
		 -> I2C_obj(BANK0[11]), 

    MSSP_I2C_Transmit_Byte@ack	PTR unsigned char  size(2) Largest target is 1
		 -> ack(COMRAM[1]), 

    MSSP_I2C_Transmit_Byte@i2c_obj	PTR const struct . size(2) Largest target is 11
		 -> I2C_obj(BANK0[11]), 

    MSSP_I2C_Send_Stop_Condition@i2c_obj	PTR const struct . size(2) Largest target is 11
		 -> I2C_obj(BANK0[11]), 

    MSSP_I2C_Send_Start_Condition@i2c_obj	PTR const struct . size(2) Largest target is 11
		 -> I2C_obj(BANK0[11]), 

    MSSP_I2C_Initialize@i2c_obj	PTR const struct . size(2) Largest target is 11
		 -> I2C_obj(BANK0[11]), 

    Setting_RBx_interrupt_handler@_RBx.Low_change_Interrupt_Handler	PTR FTN()void  size(2) Largest target is 0

    Setting_RBx_interrupt_handler@_RBx.High_change_Interrupt_Handler	PTR FTN()void  size(2) Largest target is 0

    S2676$Low_change_Interrupt_Handler	PTR FTN()void  size(2) Largest target is 0

    mcal_RBx_initialize@_RBx.Low_change_Interrupt_Handler	PTR FTN()void  size(2) Largest target is 0

    S2676$High_change_Interrupt_Handler	PTR FTN()void  size(2) Largest target is 0

    mcal_RBx_initialize@_RBx.High_change_Interrupt_Handler	PTR FTN()void  size(2) Largest target is 0

    INT2_interrupt_handler_initialize@_INTx._Interrupt_Handler	PTR FTN()void  size(2) Largest target is 0

    INT1_interrupt_handler_initialize@_INTx._Interrupt_Handler	PTR FTN()void  size(2) Largest target is 0

    INT0_interrupt_handler_initialize@_INTx._Interrupt_Handler	PTR FTN()void  size(2) Largest target is 0

    INTx_setting_interrupt_handler@_INTx._Interrupt_Handler	PTR FTN()void  size(2) Largest target is 0

    INTx_rising_edge_intialize@_INTx._Interrupt_Handler	PTR FTN()void  size(2) Largest target is 0

    INTx_falling_edge_intialize@_INTx._Interrupt_Handler	PTR FTN()void  size(2) Largest target is 0

    INTx_edge_interrupt_cnfg@_INTx._Interrupt_Handler	PTR FTN()void  size(2) Largest target is 0

    INTx_disable_interrupt_bit@_INTx._Interrupt_Handler	PTR FTN()void  size(2) Largest target is 0

    INTx_enable_interrupt_bit@_INTx._Interrupt_Handler	PTR FTN()void  size(2) Largest target is 0

    INTx_clear_interrupt_flag@_INTx._Interrupt_Handler	PTR FTN()void  size(2) Largest target is 0

    S2506$_Interrupt_Handler	PTR FTN()void  size(2) Largest target is 0

    mcal_INTx_initialize@_INTx._Interrupt_Handler	PTR FTN()void  size(2) Largest target is 0

    RB7_low_handler	volatile PTR FTN()void  size(2) Largest target is 1
		 -> NULL(), 

    RB7_high_handler	volatile PTR FTN()void  size(2) Largest target is 1
		 -> NULL(), 

    RB6_low_handler	volatile PTR FTN()void  size(2) Largest target is 1
		 -> NULL(), 

    RB6_high_handler	volatile PTR FTN()void  size(2) Largest target is 1
		 -> NULL(), 

    RB5_low_handler	volatile PTR FTN()void  size(2) Largest target is 1
		 -> NULL(), 

    RB5_high_handler	volatile PTR FTN()void  size(2) Largest target is 1
		 -> NULL(), 

    RB4_low_handler	volatile PTR FTN()void  size(2) Largest target is 1
		 -> NULL(), 

    RB4_high_handler	volatile PTR FTN()void  size(2) Largest target is 1
		 -> NULL(), 

    INT2_handler	volatile PTR FTN()void  size(2) Largest target is 1
		 -> NULL(), 

    INT1_handler	volatile PTR FTN()void  size(2) Largest target is 1
		 -> NULL(), 

    INT0_handler	volatile PTR FTN()void  size(2) Largest target is 1
		 -> NULL(), 

    gpio_pin_direction_intialize@_pin_config	PTR const struct . size(2) Largest target is 1
		 -> scl(COMRAM[1]), sda(COMRAM[1]), RC_7(COMRAM[1]), RC_6(COMRAM[1]), 
		 -> ecu_relay_intialize@relay_pin(COMRAM[1]), ecu_led_intialize@pin_obj(COMRAM[1]), 

    LAT_REG	PTR volatile unsigned char [5] size(2) Largest target is 1
		 -> LATE(BITBIGSFRlllh[1]), LATD(BITBIGSFRlllh[1]), LATC(BITBIGSFRlllh[1]), LATB(BITBIGSFRlllh[1]), 
		 -> LATA(BITBIGSFRllll[1]), 

    PORT_REG	PTR volatile unsigned char [5] size(2) Largest target is 1
		 -> PORTE(BITBIGSFRllll[1]), PORTD(BITBIGSFRllll[1]), PORTC(BITBIGSFRllll[1]), PORTB(BITBIGSFRllll[1]), 
		 -> PORTA(BITBIGSFRllll[1]), 

    TRIS_REG	PTR volatile unsigned char [5] size(2) Largest target is 1
		 -> TRISD(ABS[1]), TRISC(ABS[1]), TRISB(ABS[1]), TRISE(ABS[1]), 
		 -> TRISA(BITBIGSFRllll[1]), 

    Frame_error_interrupt_handler	PTR FTN()void  size(2) Largest target is 1
		 -> NULL(), 

    Overrun_interrupt_handler	PTR FTN()void  size(2) Largest target is 1
		 -> NULL(), 

    EUSART_Rx_interrupt_config@Rx_obj.Frame_error_handler	PTR FTN()void  size(2) Largest target is 0

    EUSART_Rx_interrupt_config@Rx_obj.Overrun_handler	PTR FTN()void  size(2) Largest target is 0

    EUSART_Rx_interrupt_config@Rx_obj.Rx_handler	PTR FTN()void  size(2) Largest target is 0

    Recieve_interrupt_handler	PTR FTN()void  size(2) Largest target is 1
		 -> NULL(), 

    EUSART_Rx_config@Rx_obj.Frame_error_handler	PTR FTN()void  size(2) Largest target is 0

    EUSART_Rx_config@Rx_obj.Overrun_handler	PTR FTN()void  size(2) Largest target is 0

    EUSART_Rx_config@Rx_obj.Rx_handler	PTR FTN()void  size(2) Largest target is 0

    EUSART_Rx_nth_bit_config@Rx_obj.Frame_error_handler	PTR FTN()void  size(2) Largest target is 0

    EUSART_Rx_nth_bit_config@Rx_obj.Overrun_handler	PTR FTN()void  size(2) Largest target is 0

    EUSART_Rx_nth_bit_config@Rx_obj.Rx_handler	PTR FTN()void  size(2) Largest target is 0

    EUSART_Tx_config@Tx_obj.Tx_handler	PTR FTN()void  size(2) Largest target is 0

    EUSART_Tx_nth_bit_config@Tx_obj.Tx_handler	PTR FTN()void  size(2) Largest target is 0

    EUSART_Tx_interrupt_config@Tx_obj.Tx_handler	PTR FTN()void  size(2) Largest target is 0

    Transmit_interrupt_handler	PTR FTN()void  size(2) Largest target is 1
		 -> NULL(), 

    EUSART_Select_Sync_Mode@usart_obj.receive_cnfg.Frame_error_handler	PTR FTN()void  size(2) Largest target is 0

    EUSART_Select_Sync_Mode@usart_obj.receive_cnfg.Overrun_handler	PTR FTN()void  size(2) Largest target is 0

    EUSART_Select_Sync_Mode@usart_obj.receive_cnfg.Rx_handler	PTR FTN()void  size(2) Largest target is 0

    EUSART_Select_Sync_Mode@usart_obj.transmit_cnfg.Tx_handler	PTR FTN()void  size(2) Largest target is 0

    EUSART_Baud_rate_gen@usart_obj.receive_cnfg.Frame_error_handler	PTR FTN()void  size(2) Largest target is 0

    EUSART_Baud_rate_gen@usart_obj.receive_cnfg.Overrun_handler	PTR FTN()void  size(2) Largest target is 0

    EUSART_Baud_rate_gen@usart_obj.receive_cnfg.Rx_handler	PTR FTN()void  size(2) Largest target is 0

    EUSART_Baud_rate_gen@usart_obj.transmit_cnfg.Tx_handler	PTR FTN()void  size(2) Largest target is 0

    S1581$Frame_error_handler	PTR FTN()void  size(2) Largest target is 0

    mcal_EUSART_initialize@usart_obj.receive_cnfg.Frame_error_handler	PTR FTN()void  size(2) Largest target is 0

    S1581$Overrun_handler	PTR FTN()void  size(2) Largest target is 0

    mcal_EUSART_initialize@usart_obj.receive_cnfg.Overrun_handler	PTR FTN()void  size(2) Largest target is 0

    S1581$Rx_handler	PTR FTN()void  size(2) Largest target is 0

    mcal_EUSART_initialize@usart_obj.receive_cnfg.Rx_handler	PTR FTN()void  size(2) Largest target is 0

    S1573$Tx_handler	PTR FTN()void  size(2) Largest target is 0

    mcal_EUSART_initialize@usart_obj.transmit_cnfg.Tx_handler	PTR FTN()void  size(2) Largest target is 0

    CCPx_interrupt_cnfg@ccpx.CCPx_interrupt_handler	PTR FTN()void  size(2) Largest target is 0

    CCP2_Interrupt_handler	PTR FTN()void  size(2) Largest target is 1
		 -> NULL(), 

    CCP2_interrupt_cnfg@ccpx.CCPx_interrupt_handler	PTR FTN()void  size(2) Largest target is 0

    CCP1_Interrupt_handler	PTR FTN()void  size(2) Largest target is 1
		 -> NULL(), 

    CCP1_interrupt_cnfg@ccpx.CCPx_interrupt_handler	PTR FTN()void  size(2) Largest target is 0

    CCPx_Disable_module@ccpx.CCPx_interrupt_handler	PTR FTN()void  size(2) Largest target is 0

    CCPx_Timer_base_select@ccpx.CCPx_interrupt_handler	PTR FTN()void  size(2) Largest target is 0

    CCP2_select_capture_cnfg@ccpx.CCPx_interrupt_handler	PTR FTN()void  size(2) Largest target is 0

    CCP1_select_capture_cnfg@ccpx.CCPx_interrupt_handler	PTR FTN()void  size(2) Largest target is 0

    Capture_mode_select_cnfg@ccpx.CCPx_interrupt_handler	PTR FTN()void  size(2) Largest target is 0

    S978$CCPx_interrupt_handler	PTR FTN()void  size(2) Largest target is 0

    hal_CCPx_initialize@ccpx.CCPx_interrupt_handler	PTR FTN()void  size(2) Largest target is 0

    mcal_ADC_get_result@_adc._ADC_handler	PTR FTN()void  size(2) Largest target is 0

    mcal_ADC_select_channel@_adc._ADC_handler	PTR FTN()void  size(2) Largest target is 0

    ADC_InterruptHandler	PTR FTN()void  size(2) Largest target is 1
		 -> NULL(), 

    S587$_ADC_handler	PTR FTN()void  size(2) Largest target is 0

    mcal_ADC_initialize@_adc._ADC_handler	PTR FTN()void  size(2) Largest target is 0

    sp__memset	PTR void  size(2) Largest target is 0


Critical Paths under _main in COMRAM

    _app_intialize->_MSSP_I2C_Initialize
    _MSSP_I2C_Initialize->_I2C_Mode_Configuration
    _I2C_Mode_Configuration->_I2C_Slave_Confg

Critical Paths under _interrupt_manger in COMRAM

    _TIMER1_ISR->_Timer1_write_to_reg
    _TIMER0_ISR->_write_val_TMR0L_TMR0H

Critical Paths under _main in BANK0

    None.

Critical Paths under _interrupt_manger in BANK0

    None.

Critical Paths under _main in BANK1

    None.

Critical Paths under _interrupt_manger in BANK1

    None.

Critical Paths under _main in BANK2

    None.

Critical Paths under _interrupt_manger in BANK2

    None.

Critical Paths under _main in BANK3

    None.

Critical Paths under _interrupt_manger in BANK3

    None.

Critical Paths under _main in BANK4

    None.

Critical Paths under _interrupt_manger in BANK4

    None.

Critical Paths under _main in BANK5

    None.

Critical Paths under _interrupt_manger in BANK5

    None.

Critical Paths under _main in BANK6

    None.

Critical Paths under _interrupt_manger in BANK6

    None.

Critical Paths under _main in BANK7

    None.

Critical Paths under _interrupt_manger in BANK7

    None.

Critical Paths under _main in BANK8

    None.

Critical Paths under _interrupt_manger in BANK8

    None.

Critical Paths under _main in BANK9

    None.

Critical Paths under _interrupt_manger in BANK9

    None.

Critical Paths under _main in BANK10

    None.

Critical Paths under _interrupt_manger in BANK10

    None.

Critical Paths under _main in BANK11

    None.

Critical Paths under _interrupt_manger in BANK11

    None.

Critical Paths under _main in BANK12

    None.

Critical Paths under _interrupt_manger in BANK12

    None.

Critical Paths under _main in BANK13

    None.

Critical Paths under _interrupt_manger in BANK13

    None.

Critical Paths under _main in BANK14

    None.

Critical Paths under _interrupt_manger in BANK14

    None.

Critical Paths under _main in BANK15

    None.

Critical Paths under _interrupt_manger in BANK15

    None.

Call Graph Tables:

 ---------------------------------------------------------------------------------
 (Depth) Function   	        Calls       Base Space   Used Autos Params    Refs
 ---------------------------------------------------------------------------------
 (0) _main                                                 2     2      0    3200
                                             16 COMRAM     2     2      0
      _MSSP_I2C_Send_Start_Condition
       _MSSP_I2C_Send_Stop_Condition
             _MSSP_I2C_Transmit_Byte
                      _app_intialize
 ---------------------------------------------------------------------------------
 (1) _app_intialize                                        0     0      0    2184
                _MSSP_I2C_Initialize
 ---------------------------------------------------------------------------------
 (2) _MSSP_I2C_Initialize                                  3     1      2    2184
                                             13 COMRAM     3     1      2
                 _I2C_Interrupt_Cnfg
             _I2C_Mode_Configuration
                    _I2C_SMBus_Confg
                 _I2C_SlewRate_Confg
       _gpio_pin_direction_intialize
 ---------------------------------------------------------------------------------
 (3) _gpio_pin_direction_intialize                         9     7      2     863
                                              2 COMRAM     9     7      2
 ---------------------------------------------------------------------------------
 (3) _I2C_SlewRate_Confg                                   3     1      2     146
                                              2 COMRAM     3     1      2
 ---------------------------------------------------------------------------------
 (3) _I2C_SMBus_Confg                                      3     1      2     146
                                              2 COMRAM     3     1      2
 ---------------------------------------------------------------------------------
 (3) _I2C_Mode_Configuration                               4     2      2     663
                                              9 COMRAM     4     2      2
                   _I2C_Master_Confg
                    _I2C_Slave_Confg
 ---------------------------------------------------------------------------------
 (4) _I2C_Slave_Confg                                      8     6      2     277
                                              2 COMRAM     7     5      2
 ---------------------------------------------------------------------------------
 (4) _I2C_Master_Confg                                     4     2      2     190
                                              2 COMRAM     4     2      2
 ---------------------------------------------------------------------------------
 (3) _I2C_Interrupt_Cnfg                                   3     1      2     167
                                              2 COMRAM     3     1      2
 ---------------------------------------------------------------------------------
 (1) _MSSP_I2C_Transmit_Byte                               7     2      5     758
                                              2 COMRAM     6     1      5
 ---------------------------------------------------------------------------------
 (1) _MSSP_I2C_Send_Stop_Condition                         3     1      2     106
                                              2 COMRAM     2     0      2
 ---------------------------------------------------------------------------------
 (1) _MSSP_I2C_Send_Start_Condition                        3     1      2     106
                                              2 COMRAM     2     0      2
 ---------------------------------------------------------------------------------
 Estimated maximum stack depth 4
 ---------------------------------------------------------------------------------
 (Depth) Function   	        Calls       Base Space   Used Autos Params    Refs
 ---------------------------------------------------------------------------------
 (5) _interrupt_manger                                     0     0      0     696
                            _ADC_ISR
                           _CCP1_ISR
                           _CCP2_ISR
                    _I2C_BUS_COL_ISR
                            _I2C_ISR
                           _INT0_ISR
                           _INT1_ISR
                           _INT2_ISR
                            _RB4_ISR
                            _RB5_ISR
                            _RB6_ISR
                            _RB7_ISR
                             _Rx_ISR
                         _TIMER0_ISR
                         _TIMER1_ISR
                         _TIMER2_ISR
                         _TIMER3_ISR
                             _Tx_ISR
 ---------------------------------------------------------------------------------
 (6) _Tx_ISR                                               0     0      0       0
 ---------------------------------------------------------------------------------
 (6) _TIMER3_ISR                                           0     0      0       0
 ---------------------------------------------------------------------------------
 (6) _TIMER2_ISR                                           0     0      0       0
 ---------------------------------------------------------------------------------
 (6) _TIMER1_ISR                                           0     0      0     280
                _Timer1_write_to_reg
 ---------------------------------------------------------------------------------
 (7) _Timer1_write_to_reg                                  3     1      2     280
                                              0 COMRAM     2     0      2
 ---------------------------------------------------------------------------------
 (6) _TIMER0_ISR                                           0     0      0     296
              _write_val_TMR0L_TMR0H
 ---------------------------------------------------------------------------------
 (7) _write_val_TMR0L_TMR0H                                3     1      2     296
                                              0 COMRAM     2     0      2
 ---------------------------------------------------------------------------------
 (6) _Rx_ISR                                               0     0      0       0
 ---------------------------------------------------------------------------------
 (6) _RB7_ISR                                              1     1      0      30
                                              0 COMRAM     1     1      0
 ---------------------------------------------------------------------------------
 (6) _RB6_ISR                                              1     1      0      30
                                              0 COMRAM     1     1      0
 ---------------------------------------------------------------------------------
 (6) _RB5_ISR                                              1     1      0      30
                                              0 COMRAM     1     1      0
 ---------------------------------------------------------------------------------
 (6) _RB4_ISR                                              1     1      0      30
                                              0 COMRAM     1     1      0
 ---------------------------------------------------------------------------------
 (6) _INT2_ISR                                             0     0      0       0
 ---------------------------------------------------------------------------------
 (6) _INT1_ISR                                             0     0      0       0
 ---------------------------------------------------------------------------------
 (6) _INT0_ISR                                             0     0      0       0
 ---------------------------------------------------------------------------------
 (6) _I2C_ISR                                              0     0      0       0
 ---------------------------------------------------------------------------------
 (6) _I2C_BUS_COL_ISR                                      0     0      0       0
 ---------------------------------------------------------------------------------
 (6) _CCP2_ISR                                             0     0      0       0
 ---------------------------------------------------------------------------------
 (6) _CCP1_ISR                                             0     0      0       0
 ---------------------------------------------------------------------------------
 (6) _ADC_ISR                                              0     0      0       0
 ---------------------------------------------------------------------------------
 Estimated maximum stack depth 7
 ---------------------------------------------------------------------------------

 Call Graph Graphs:

 _main (ROOT)
   _MSSP_I2C_Send_Start_Condition
   _MSSP_I2C_Send_Stop_Condition
   _MSSP_I2C_Transmit_Byte
   _app_intialize
     _MSSP_I2C_Initialize
       _I2C_Interrupt_Cnfg
       _I2C_Mode_Configuration
         _I2C_Master_Confg
         _I2C_Slave_Confg
       _I2C_SMBus_Confg
       _I2C_SlewRate_Confg
       _gpio_pin_direction_intialize

 _interrupt_manger (ROOT)
   _ADC_ISR
   _CCP1_ISR
   _CCP2_ISR
   _I2C_BUS_COL_ISR
   _I2C_ISR
   _INT0_ISR
   _INT1_ISR
   _INT2_ISR
   _RB4_ISR
   _RB5_ISR
   _RB6_ISR
   _RB7_ISR
   _Rx_ISR
   _TIMER0_ISR
     _write_val_TMR0L_TMR0H
   _TIMER1_ISR
     _Timer1_write_to_reg
   _TIMER2_ISR
   _TIMER3_ISR
   _Tx_ISR

 Address spaces:
Name               Size   Autos  Total    Cost      Usage
BIGRAM             F7F      0       0      48        0.0%
EEDATA             400      0       0       0        0.0%
BITBANK14          100      0       0      32        0.0%
BANK14             100      0       0      33        0.0%
BITBANK13          100      0       0      30        0.0%
BANK13             100      0       0      31        0.0%
BITBANK12          100      0       0      28        0.0%
BANK12             100      0       0      29        0.0%
BITBANK11          100      0       0      26        0.0%
BANK11             100      0       0      27        0.0%
BITBANK10          100      0       0      24        0.0%
BANK10             100      0       0      25        0.0%
BITBANK9           100      0       0      22        0.0%
BANK9              100      0       0      23        0.0%
BITBANK8           100      0       0      20        0.0%
BANK8              100      0       0      21        0.0%
BITBANK7           100      0       0      18        0.0%
BANK7              100      0       0      19        0.0%
BITBANK6           100      0       0      16        0.0%
BANK6              100      0       0      17        0.0%
BITBANK5           100      0       0      14        0.0%
BANK5              100      0       0      15        0.0%
BITBANK4           100      0       0      12        0.0%
BANK4              100      0       0      13        0.0%
BITBANK3           100      0       0      10        0.0%
BANK3              100      0       0      11        0.0%
BITBANK2           100      0       0       8        0.0%
BANK2              100      0       0       9        0.0%
BITBANK1           100      0       0       6        0.0%
BANK1              100      0       0       7        0.0%
BITBANK15           80      0       0      34        0.0%
BANK15              80      0       0      35        0.0%
BITBANK0            80      0       0       4        0.0%
BANK0               80      0      54       5       65.6%
BITCOMRAM           7E      0       0       0        0.0%
COMRAM              7E     12      7B       1       97.6%
BITBIGSFRhlhlhh     18      0       0      37        0.0%
BITBIGSFRhh          D      0       0      36        0.0%
BITBIGSFRllhh        6      0       0      44        0.0%
BITBIGSFRhlhlhl      4      0       0      38        0.0%
BITBIGSFRlllh        4      0       0      45        0.0%
BITBIGSFRlhllhh      4      0       0      41        0.0%
BITBIGSFRlhllhl      4      0       0      42        0.0%
BITBIGSFRllll        4      0       0      46        0.0%
BITBIGSFRhlhllh      1      0       0      39        0.0%
BITBIGSFRlhllhh      1      0       0      40        0.0%
BITBIGSFRlhlll       1      0       0      43        0.0%
BIGSFR               0      0       0     200        0.0%
BITSFR               0      0       0     200        0.0%
SFR                  0      0       0     200        0.0%
STACK                0      0       0       2        0.0%
NULL                 0      0       0       0        0.0%
ABS                  0      0      CF      47        0.0%
DATA                 0      0      CF       3        0.0%
CODE                 0      0       0       0        0.0%


Microchip Technology PIC18 Macro Assembler V2.41 build 20230208172133 
Symbol Table                                                                                   Sat Feb 17 05:12:26 2024

           I2C_Slave_Confg@address_bytes 0071                   _CCP2_Interrupt_handler 003A  
                            _SSPSTATbits 0FC7                                      l755 152A  
                        ??_app_intialize 007A                                      _ack 0065  
                        __end_of_I2C_ISR 1BA2                                      _sda 0066  
                        __end_of_ADC_ISR 1BB2                                      _scl 0067  
              _Overrun_interrupt_handler 0034                                      prod 0FF3  
                                    wreg 0FE8                          _RB4_low_handler 0028  
                        __end_of_RB4_ISR 1B20                          __end_of_RB5_ISR 1AF4  
                        __end_of_RB6_ISR 1AC8                          __end_of_RB7_ISR 1A9C  
                                   l1211 1A14                                     l1212 1A0E  
                                   l1221 19CE                                     l1214 1A16  
                                   l1231 1756                                     l1241 15D0  
                                   l1242 15D4                                     l1218 19CC  
                                   l1162 17EA                                     l1171 1A6A  
                                   l1227 1754                                     l1219 19C6  
                                   l1260 193C                                     l1164 1842  
                                   l1173 1A6E                                     l1245 15F6  
                                   l1246 1616                                     l1167 1A5A  
                                   l1191 1A42                                     l1239 15C2  
                                   l1255 17CE                                     l1248 161A  
                                   l1169 1A5C                                     l1185 1A2E  
                                   l1194 1954                                     l1258 1908  
                                   l1187 1A30                                     l1196 1958  
                                   l1189 1A3E                                     l1199 1986  
                                   l1573 16C2                                     l5030 17EC  
                                   l5040 183E                                     l5032 1808  
                                   l5024 17D0                                     l5042 1840  
                                   l5034 1816                                     l5026 17D4  
                                   l1579 1B6E                                     l5036 1824  
                                   l5028 17E6                                     l5038 1832  
                                   l5160 1A44                                     l5162 1A56  
                                   l5170 193E                                     l5164 1A18  
                                   l5172 193E                                     l5180 1B62  
                                   l5158 1A44                                     l5166 1A18  
                                   l5174 1950                                     l5168 1A2A  
                                   l5176 1966                                     l4900 1402  
                                   l4910 14E6                                     l4902 1420  
                                   l4920 18EE                                     l4904 1428  
                                   l4912 1528                                     l4930 1936  
                                   l4922 18EE                                     l4906 148A  
                                   l4932 193A                                     l4924 1900  
                                   l4860 16E0                                     l4940 19E2  
                                   l4926 1912                                     l4870 174C  
                                   l4862 1700                                     l4942 19EA  
                                   l4928 1922                                     l4864 1708  
                                   l4856 16CA                                     l4880 1542  
                                   l4944 1A04                                     l4936 19D0  
                                   l4960 19BC                                     l4952 1988  
                                   l4866 1724                                     l4858 16CE  
                                   l4890 1610                                     l4882 1562  
                                   l4874 152C                                     l4970 175C  
                                   l4946 1A06                                     l4938 19D0  
                                   l4962 19BE                                     l4954 1988  
                                   l4868 1730                                     l4884 1582  
                                   l4892 1618                                     l4876 152C  
                                   l4972 176E                                     l4956 199A  
                                   l4886 15A2                                     l4878 153E  
                                   l4974 1772                                     l4958 19A2  
                                   l5950 1620                                     l4888 15E6  
                                   l4976 17AE                                     l4968 1758  
                                   l4896 13EC                                     l5960 1666  
                                   l5952 1628                                     l4978 17C0  
                                   l4898 13F0                                     l5962 168A  
                                   l5954 1634                                     l5964 1696  
                                   l5956 164C                                     l5948 161C  
                                   l5974 1512                                     l5966 16A4  
                                   l5958 1664                                     l5968 16A6  
                                   STR_1 1001                                     _LATA 0F89  
                                   _LATB 0F8A                                     _LATC 0F8B  
                                   _LATD 0F8C                                     _LATE 0F8D  
                                   u3230 16E0                                     u3310 15D0  
                                   u3231 16DC                                     u3311 15CC  
                                   u3400 1900                                     u3240 1700  
                                   u3320 15E2                                     u3401 18FC  
                                   u3241 16FC                                     u3321 15DE  
                                   u3305 15AE                                     u3250 1724  
                                   u3330 1610                                     u3410 19E2  
                                   u3251 1720                                     u3331 160C  
                                   u3411 19DE                                     u3260 174C  
                                   u3420 1A04                                     u3340 1402  
                                   u3261 1748                                     u3421 1A00  
                                   u3341 13FE                                     u3270 153E  
                                   u3430 199A                                     u3350 1420  
                                   u3510 17E6                                     u3271 153A  
                                   u3431 1996                                     u3351 141C  
                                   u3511 17E2                                     u3280 1562  
                                   u3440 19BC                                     u3281 155E  
                                   u3441 19B8                                     u3290 1582  
                                   u3450 176E                                     u3291 157E  
                                   u3451 176A                                     u3700 1966  
                                   u3460 17AE                                     u3380 14FE  
                                   u3364 1448                                     u3701 1962  
                                   u3461 17AA                                     u3381 14F8  
                                   u3365 1444                                     u3710 1978  
                                   u3390 1500                                     u3374 14AA  
                                   u3711 1970                                     u3375 14A6  
                                   u3650 1A56                                     u3651 1A52  
                                   u3660 1A6A                                     u3661 1A66  
                                   u3670 1A2A                                     u3718 197A  
                                   u3671 1A26                                     u3680 1A3E  
                                   u3681 1A3A                                     u3690 1950  
                                   u3691 194C                                     u4950 16C2  
                                   u4951 16BE                                     u4967 169C  
                                   _RC_6 0069                                     _RC_7 0068  
                                   _TMR2 0FCC                                     _data 0040  
                                   _main 161C                                     _name 0080  
                       __end_of_CCP1_ISR 1BAE                         __end_of_CCP2_ISR 1BAA  
                                   fsr2h 0FDA                                     indf2 0FDF  
                                   fsr1l 0FE1                                     fsr2l 0FD9  
                __end_of_I2C_Slave_Confg 161C                                     btemp 007C  
                 _I2C_Mode_Configuration 1758                        ??_I2C_BUS_COL_ISR 006A  
                                   prodl 0FF3                                     start 000E  
                           ___param_bank 0000                              ?_TIMER0_ISR 006A  
                            ?_TIMER1_ISR 006A                              ?_TIMER2_ISR 006A  
                            ?_TIMER3_ISR 006A                         __end_of_INT0_ISR 1B9E  
                       __end_of_INT1_ISR 1B9A                         __end_of_INT2_ISR 1B96  
               __end_of_interrupt_manger 13EC                                    ?_main 006A  
                  I2C_Interrupt_Cnfg@ret 006E                                    _EEADR 0FA9  
                 _MSSP_I2C_Transmit_Byte 193E                                    i2l514 1BAC  
                                  i2l356 1BB0                                    i2l518 1BA8  
                                  i2l703 1BB4                                    i2l707 1BB2  
                                  i2l909 13E8                                    i2l971 1B98  
                                  i2l981 1B1E                                    i2l967 1B9C  
                                  i2l975 1B94                                    i2l993 1AC6  
                                  i2l987 1AF2                                    i2l999 1A9A  
                                  _RCREG 0FAE                                    _TMR0H 0FD7  
                                  _TMR1H 0FCF                                    _TMR0L 0FD6  
                                  _TMR3H 0FB3                                    _TMR1L 0FCE  
                                  _TMR3L 0FB2                                    _SPBRG 0FAF  
                                  _PORTA 0F80                                    _PORTB 0F81  
                                  _PORTC 0F82                                    _PORTD 0F83  
                                  _PORTE 0F84                                    _TRISA 0F92  
                                  _TRISB 0F93                                    _TRISC 0F94  
                                  _TRISD 0F95                                    _TRISE 0F96  
                                  _TXREG 0FAD                          _RB5_low_handler 0024  
                                  _lcd_1 00B7                                    _btn_1 005D  
                                  main@i 007B                                    tablat 0FF5  
        ??_MSSP_I2C_Send_Start_Condition 006E                                    ttemp5 007D  
                                  ttemp6 0080                                    ttemp7 0084  
                                  status 0FD8                                    wtemp8 007D  
                ??_write_val_TMR0L_TMR0H 006C                         _RB7_high_handler 001E  
              __timer3_interrupr_handler 000C                          __initialization 1844  
                           __end_of_main 16CA                                ??_I2C_ISR 006A  
                    ecu_led_toggle@F3216 0045                                ??_ADC_ISR 006A  
                                 ??_main 007A                            __activetblptr 0003  
                      ?_I2C_Master_Confg 006C                                ??_RB4_ISR 006A  
                              ??_RB5_ISR 006A                                ??_RB6_ISR 006A  
                              ??_RB7_ISR 006A                       ??_I2C_Master_Confg 006E  
                        _RB6_low_handler 0020            MSSP_I2C_Transmit_Byte@i2c_obj 006C  
                                 _ADRESH 0FC4                                   _EEADRH 0FAA  
                                 _ADRESL 0FC3                                   _EEDATA 0FA8  
                                 _CCPR1H 0FBF                                   _CCPR2H 0FBC  
                                 _CCPR1L 0FBE                                   _CCPR2L 0FBB  
                                 _EECON2 0FA7                                   i2l1264 1BA0  
                                 i2l1416 1B84                                   i2l1434 1B50  
                                 i2l1355 1B7A                                   i2l1268 1BA4  
                                 i2l1359 1B60                                   i2l1543 1B90  
                                 i2l1474 1B8C                                   i2l2702 1B92  
                                 i2l2710 1B08                                   i2l2720 1ACC  
                                 i2l2650 1BA6                                   i2l2714 1B1E  
                                 i2l2706 1AF6                                   i2l2722 1ADC  
                                 i2l2730 1A9E                                   i2l2708 1AF8  
                                 i2l2732 1AA0                                   i2l5052 1B7C  
                                 i2l2646 1BAA                                   i2l2726 1AF2  
                                 i2l2718 1ACA                                   i2l2734 1AB0  
                                 i2l2750 1A9A                                   i2l2742 1A72  
                                 i2l5046 1B70                                   i2l5054 1B80  
                                 i2l2744 1A74                                   i2l5048 1B74  
                                 i2l5152 1B42                                   i2l2594 1BAE  
                                 i2l2738 1AC6                                   i2l2746 1A84  
                                 i2l5146 1B52                                   i2l5154 1B4E  
                                 i2l2770 1B8E                                   i2l5148 1B54  
                                 i2l2692 1BB2                                   i2l2774 1B9E  
                                 i2l2694 1B9A                                   i2l2686 1BB4  
                                 i2l2766 1B86                                   i2l2778 1BA2  
                                 i2l2698 1B96                                   i2l5700 10F0  
                                 i2l5710 112E                                   i2l5702 10FE  
                                 i2l5800 1324                                   i2l5720 116E  
                                 i2l5704 110C                                   i2l5712 1134  
                                 i2l5810 1356                                   i2l5802 1328  
                                 i2l5730 11A2                                   i2l5722 1172  
                                 i2l5714 1142                                   i2l5706 111A  
                                 i2l5820 1388                                   i2l5812 1364  
                                 i2l5804 1336                                   i2l5740 11D8  
                                 i2l5732 11B2                                   i2l5716 1150  
                                 i2l5724 1178                                   i2l5708 112A  
                                 i2l5660 1016                                   i2l5830 13C4  
                                 i2l5822 1396                                   i2l5814 1368  
                                 i2l5806 1344                                   i2l5750 120E  
                                 i2l5742 11E6                                   i2l5734 11B6  
                                 i2l5726 1186                                   i2l5718 115E  
                                 i2l5670 1048                                   i2l5662 1024  
                                 i2l5832 13C8                                   i2l5824 13A4  
                                 i2l5816 1376                                   i2l5808 1348  
                                 i2l5752 121C                                   i2l5760 1244  
                                 i2l5744 11F6                                   i2l5728 1194  
                                 i2l5736 11BC                                   i2l5680 1084  
                                 i2l5672 1056                                   i2l5664 1028  
                                 i2l5834 13D6                                   i2l5826 13A8  
                                 i2l5818 1384                                   i2l5770 1282  
                                 i2l5762 1252                                   i2l5754 122A  
                                 i2l5746 11FA                                   i2l5738 11CA  
                                 i2l5690 10BA                                   i2l5682 1092  
                                 i2l5674 1064                                   i2l5666 1036  
                                 i2l5658 1008                                   i2l5836 13E4  
                                 i2l5828 13B6                                   i2l5780 12B6  
                                 i2l5764 1260                                   i2l5772 1288  
                                 i2l5756 123A                                   i2l5748 1200  
                                 i2l5692 10C8                                   i2l5684 10A2  
                                 i2l5676 1068                                   i2l5668 1044  
                                 i2l5790 12E8                                   i2l5782 12C4  
                                 i2l5774 1296                                   i2l5766 126E  
                                 i2l5758 123E                                   i2l5694 10D6  
                                 i2l5686 10A6                                   i2l5678 1076  
                                 i2l5792 12F6                                   i2l5784 12C8  
                                 i2l5776 12A4                                   i2l5768 127E  
                                 i2l5696 10E6                                   i2l5688 10AC  
                                 i2l5794 1304                                   i2l5786 12D6  
                                 i2l5778 12A8                                   i2l5698 10EA  
                                 i2l5796 1308                                   i2l5788 12E4  
                                 i2l5798 1316            I2C_Mode_Configuration@i2c_obj 0073  
                                 _SPBRGH 0FB0                                   _SSPADD 0FC8  
                                 _SSPBUF 0FC9                         ?_I2C_Slave_Confg 006C  
                                 _Rx_ISR 1BB4                                   _Tx_ISR 1BB2  
    MSSP_I2C_Send_Stop_Condition@i2c_obj 006C            _I2C_default_Interrupt_handler 001A  
                 ecu_led_intialize@F3201 0048                                   clear_0 188A  
                                 isa$std 0001  gpio_pin_direction_intialize@_pin_config 006C  
                              ?_CCP1_ISR 006A                             __pdataCOMRAM 0049  
                              ?_CCP2_ISR 006A                             __mediumconst 0000  
                                 tblptrh 0FF7                                   tblptrl 0FF6  
                                 tblptru 0FF8                          _RB7_low_handler 001C  
       ecu_convert_uint8_to_string@F3275 0006                               __accesstop 0080  
                __end_of__initialization 1890                                ?_INT0_ISR 006A  
                              ?_INT1_ISR 006A                                ?_INT2_ISR 006A  
                          ___rparam_used 0001                           __pcstackCOMRAM 006A  
                           __pidataBANK0 189A                MSSP_I2C_Transmit_Byte@ack 006F  
                 I2C_Slave_Confg@i2c_obj 006C               __end_of_I2C_SlewRate_Confg 19D0  
                             ??_CCP1_ISR 006A                               ??_CCP2_ISR 006A  
              _Recieve_interrupt_handler 0036                          _I2C_BUS_COL_ISR 1BA2  
   MSSP_I2C_Send_Start_Condition@i2c_obj 006C                  ?_I2C_Mode_Configuration 0073  
                      ??_I2C_SMBus_Confg 006E                               ??_INT0_ISR 006A  
                             ??_INT1_ISR 006A               MSSP_I2C_Initialize@i2c_obj 0077  
                             ??_INT2_ISR 006A                 _timer2_interrupr_handler 000E  
                                ?_Rx_ISR 006A                                  ?_Tx_ISR 006A  
                           ??_TIMER0_ISR 006C                             ??_TIMER1_ISR 006C  
                           ??_TIMER2_ISR 006A                             ??_TIMER3_ISR 006A  
                ?_MSSP_I2C_Transmit_Byte 006C                                  _I2C_ISR 1B9E  
                                _ADC_ISR 1BAE                                  _I2C_obj 00C9  
                      ?_interrupt_manger 006A                       ??_interrupt_manger 006C  
                                _RB4_ISR 1AF4                                  _RB5_ISR 1AC8  
                                _RB6_ISR 1A9C                                  _RB7_ISR 1A70  
                                _LAT_REG 0049                    __end_of_app_intialize 1B70  
                                i2u51_40 1B08                                  i2u51_41 1B04  
                                i2u52_40 1B1A                                  i2u52_41 1B16  
                                i2u53_40 1ADC                                  i2u53_41 1AD8  
                                i2u54_40 1AEE                                  i2u54_41 1AEA  
                                i2u55_40 1AB0                                  i2u55_41 1AAC  
                                i2u56_40 1AC2                                  i2u56_41 1ABE  
                                i2u57_40 1A84                                  i2u57_41 1A80  
                                i2u58_40 1A96                                  i2u58_41 1A92  
         __end_of_I2C_Mode_Configuration 17D0                       __end_of_TIMER0_ISR 1B62  
                     __end_of_TIMER1_ISR 1B52                       __end_of_TIMER2_ISR 1B8E  
                     __end_of_TIMER3_ISR 1B92                      _Timer1_write_to_reg 1B7C  
                             _keyPad_btn 009D        ecu_convert_uint16_to_string@F3282 0001  
                   _ADC_InterruptHandler 003E            __end_of_write_val_TMR0L_TMR0H 1B7C  
                                __Hparam 0000                                  __Lparam 0000  
         __end_of_MSSP_I2C_Transmit_Byte 1988                             __psmallconst 1000  
                                _address 0060                                  __pcinit 1844  
                                __ramtop 1000                  __end_of_I2C_BUS_COL_ISR 1BA6  
                   ?_Timer1_write_to_reg 006A                I2C_SlewRate_Confg@i2c_obj 006C  
                                __ptext0 161C                                  __ptext1 1B62  
                                __ptext2 17D0                                  __ptext3 13EC  
                                __ptext4 1988                                  __ptext5 19D0  
                                __ptext6 1758                                  __ptext7 152C  
                                __ptext8 16CA                                  __ptext9 18EE  
                              _T0CONbits 0FD5                                _T1CONbits 0FCD  
                              _T2CONbits 0FCA                                _T3CONbits 0FB1  
                  I2C_SlewRate_Confg@ret 006E                   Timer1_write_to_reg@val 006A  
                         __pintcode_body 1006                     end_of_initialization 1890  
                                int_func 1006                __timer1_interrupr_handler 0012  
                              _RCSTAbits 0FAB                                  postdec1 0FE5  
                                postdec2 0FDD                                  postinc0 0FEE  
                                postinc2 0FDE                    ??_Timer1_write_to_reg 006C  
                              _PORTBbits 0F81     __end_of_gpio_pin_direction_intialize 152C  
           _gpio_pin_direction_intialize 13EC                              _CCP1CONbits 0FBD  
                            _CCP2CONbits 0FBA                                _TXSTAbits 0FAC  
                             RB4_ISR@src 006A                    ecu_led_turn_off@F3206 0047  
                             RB5_ISR@src 006A                           __end_of_Rx_ISR 1BB6  
                         __end_of_Tx_ISR 1BB4                      _MSSP_I2C_Initialize 17D0  
                             RB6_ISR@src 006A                               RB7_ISR@src 006A  
                          __pidataCOMRAM 1B20                           __preloaded_val 0014  
                            _BAUDCTLbits 0FB8                       I2C_SMBus_Confg@ret 006E  
                       ?_I2C_BUS_COL_ISR 006A               MSSP_I2C_Transmit_Byte@data 006E  
                        _I2C_SMBus_Confg 19D0                             _INT0_handler 0030  
                           _INT1_handler 002E                      start_initialization 1844  
                           _INT2_handler 002C            ?_gpio_pin_direction_intialize 006C  
                   ?_MSSP_I2C_Initialize 0077                       _I2C_SlewRate_Confg 1988  
                    ?_I2C_SlewRate_Confg 006C                                 ??_Rx_ISR 006A  
                               ??_Tx_ISR 006A                              __pdataBANK0 0080  
                               ?_I2C_ISR 006A                                 ?_ADC_ISR 006A  
                               ?_RB4_ISR 006A                                 ?_RB5_ISR 006A  
                               ?_RB6_ISR 006A                                 ?_RB7_ISR 006A  
                   ??_I2C_SlewRate_Confg 006E                              __pbssCOMRAM 0001  
                  ??_MSSP_I2C_Initialize 0079               __end_of_I2C_Interrupt_Cnfg 193E  
                       _I2C_Master_Confg 16CA          gpio_pin_direction_intialize@ret 0074  
                              __pintcode 0008    __end_of_MSSP_I2C_Send_Start_Condition 1A70  
          _MSSP_I2C_Send_Start_Condition 1A44                 _timer0_interrupt_handler 0016  
                __end_of_I2C_SMBus_Confg 1A18                   _CCP1_Interrupt_handler 003C  
          _Frame_error_interrupt_handler 0032                              __smallconst 1000  
                               _CCP1_ISR 1BAA                                 _CCP2_ISR 1BA6  
                      ??_I2C_Slave_Confg 006E                         _RB4_high_handler 002A  
         ??_gpio_pin_direction_intialize 006E                                 _INT0_ISR 1B9A  
                               _INT1_ISR 1B96                                 _INT2_ISR 1B92  
                               _RB4_flag 0064                                 _PIE1bits 0F9D  
                               _PIE2bits 0FA0                                 _RB5_flag 0063  
                               _RB6_flag 0062                                 _RB7_flag 0061  
              I2C_Mode_Configuration@ret 0076                                 i2u430_40 1024  
                               i2u430_41 1020                                 i2u431_40 1036  
                               i2u431_41 1032                                 i2u440_40 10C8  
                               i2u432_40 1044                                 i2u440_41 10C4  
                               i2u432_41 1040                                 i2u441_40 10D6  
                               i2u433_40 1056                                 i2u441_41 10D2  
                               i2u433_41 1052                                 _PIR1bits 0F9E  
                               i2u450_40 116E                                 i2u442_40 10E6  
                               i2u434_40 1064                                 i2u450_41 116A  
                               i2u442_41 10E2                                 i2u434_41 1060  
                               i2u451_40 1186                                 i2u443_40 10FE  
                               i2u435_40 1076                                 i2u451_41 1182  
                               i2u443_41 10FA                                 i2u435_41 1072  
                               _PIR2bits 0FA1                                 i2u460_40 121C  
                               i2u452_40 1194                                 i2u444_40 110C  
                               i2u436_40 1084                                 i2u460_41 1218  
                               i2u452_41 1190                                 i2u444_41 1108  
                               i2u436_41 1080                                 i2u461_40 122A  
                               i2u453_40 11A2                                 i2u445_40 111A  
                               i2u437_40 1092                                 i2u429_40 1016  
                               i2u461_41 1226                                 i2u453_41 119E  
                               i2u445_41 1116                                 i2u437_41 108E  
                               i2u429_41 1012                                 i2u470_40 12C4  
                               i2u462_40 123A                                 i2u454_40 11B2  
                               i2u446_40 112A                                 i2u438_40 10A2  
                               i2u470_41 12C0                                 i2u462_41 1236  
                               i2u454_41 11AE                                 i2u446_41 1126  
                               i2u438_41 109E                                 i2u471_40 12D6  
                               i2u463_40 1252                                 i2u455_40 11CA  
                               i2u447_40 1142                                 i2u439_40 10BA  
                               i2u471_41 12D2                                 i2u463_41 124E  
                               i2u455_41 11C6                                 i2u447_41 113E  
                               i2u439_41 10B6                                 i2u480_40 1364  
                               i2u472_40 12E4                                 i2u464_40 1260  
                               i2u456_40 11D8                                 i2u448_40 1150  
                               i2u480_41 1360                                 i2u472_41 12E0  
                               i2u464_41 125C                                 i2u456_41 11D4  
                               i2u448_41 114C                                 i2u481_40 1376  
                               i2u473_40 12F6                                 i2u465_40 126E  
                               i2u457_40 11E6                                 i2u449_40 115E  
                               i2u481_41 1372                                 i2u473_41 12F2  
                               i2u465_41 126A                                 i2u457_41 11E2  
                               i2u449_41 115A                                 i2u482_40 1384  
                               i2u474_40 1304                                 i2u466_40 127E  
                               i2u458_40 11F6                                 i2u482_41 1380  
                               i2u474_41 1300                                 i2u466_41 127A  
                               i2u458_41 11F2                                 i2u483_40 1396  
                               i2u475_40 1316                                 i2u467_40 1296  
                               i2u459_40 120E                                 i2u483_41 1392  
                               i2u475_41 1312                                 i2u467_41 1292  
                               i2u459_41 120A                                 i2u484_40 13A4  
                               i2u476_40 1324                                 i2u468_40 12A4  
                               i2u484_41 13A0                                 i2u476_41 1320  
                               i2u468_41 12A0                                 i2u485_40 13B6  
                               i2u477_40 1336                                 i2u469_40 12B6  
                               i2u485_41 13B2                                 i2u477_41 1332  
                               i2u469_41 12B2                                 i2u486_40 13C4  
                               i2u478_40 1344                                 i2u486_41 13C0  
                               i2u478_41 1340                                 i2u487_40 13D6  
                               i2u479_40 1356                                 i2u487_41 13D2  
                               i2u479_41 1352                                 i2u488_40 13E4  
                               i2u488_41 13E0               _Transmit_interrupt_handler 0038  
                               _RCONbits 0FD0                    _write_val_TMR0L_TMR0H 1B70  
                               _PORT_REG 00AD                      I2C_Master_Confg@ret 006F  
                               _TRIS_REG 0053                               _ADCON0bits 0FC2  
                             _ADCON1bits 0FC1                               _ADCON2bits 0FC0  
                   ecu_led_turn_on@F3211 0046     __end_of_MSSP_I2C_Send_Stop_Condition 1A44  
           _MSSP_I2C_Send_Stop_Condition 1A18                              _INTCON2bits 0FF1  
                            _INTCON3bits 0FF0                                copy_data0 1858  
                              copy_data1 1878                   I2C_SMBus_Confg@i2c_obj 006C  
                             _EECON1bits 0FA6                                 __Hrparam 0000  
            __end_of_Timer1_write_to_reg 1B86                                 __Lrparam 0000  
                       ?_I2C_SMBus_Confg 006C           ?_MSSP_I2C_Send_Start_Condition 006C  
                          _preloaded_val 000A                 ??_I2C_Mode_Configuration 0075  
                          _app_intialize 1B62                                 __ptext10 193E  
                               __ptext11 1A18                                 __ptext20 1B70  
                               __ptext12 1A44                                 __ptext21 1BB4  
                               __ptext30 1BA2                                 __ptext22 1A70  
                               __ptext14 1BB2                                 __ptext31 1BA6  
                               __ptext23 1A9C                                 __ptext15 1B8E  
                               __ptext32 1BAA                                 __ptext24 1AC8  
                               __ptext16 1B86                                 __ptext33 1BAE  
                               __ptext25 1AF4                                 __ptext17 1B42  
                               __ptext26 1B92                                 __ptext18 1B7C  
                               __ptext27 1B96                                 __ptext19 1B52  
                               __ptext28 1B9A                                 __ptext29 1B9E  
          ?_MSSP_I2C_Send_Stop_Condition 006C                         _interrupt_manger 0008  
                       _RB5_high_handler 0026                                 _keypad_1 00C1  
               ??_MSSP_I2C_Transmit_Byte 0071                   ?_write_val_TMR0L_TMR0H 006A  
                ecu_relay_turn_off@F3205 0042                                 isa$xinst 0000  
                               int$flags 007C                 ecu_relay_intialize@F3195 0044  
               __end_of_I2C_Master_Confg 1758                               _INTCONbits 0FF2  
                         ?_app_intialize 006A                                 intlevel2 0000  
        _preloaded_val@mcal_timer1$F3736 0010          _preloaded_val@mcal_timer2$F3891 0041  
                 ecu_relay_turn_on@F3200 0043                       _I2C_Interrupt_Cnfg 18EE  
              I2C_Interrupt_Cnfg@i2c_obj 006C                 write_val_TMR0L_TMR0H@val 006A  
                        _I2C_Slave_Confg 152C                               _TIMER0_ISR 1B52  
                             _TIMER1_ISR 1B42                               _TIMER2_ISR 1B86  
                             _TIMER3_ISR 1B8E                   MSSP_I2C_Initialize@ret 0079  
                    ?_I2C_Interrupt_Cnfg 006C                  I2C_Master_Confg@i2c_obj 006C  
            __end_of_MSSP_I2C_Initialize 1844                              _SSPCON1bits 0FC6  
                            _SSPCON2bits 0FC5                     ??_I2C_Interrupt_Cnfg 006E  
                       _RB6_high_handler 0022           ??_MSSP_I2C_Send_Stop_Condition 006E  
          _I2C_Bus_Col_Interrupt_handler 0018  
